
test.elf:     file format elf32-littleriscv


Disassembly of section .text:

00000000 <reset_vector>:
       0:	a041                	j	80 <reset_hand>
	...

00000004 <nmi_vector>:
       4:	a8f5                	j	100 <ebreak_hand>
	...

00000008 <tmr_vector>:
       8:	a8e5                	j	100 <ebreak_hand>
	...

0000000c <ecall_vector>:
       c:	a8d5                	j	100 <ebreak_hand>
	...

00000010 <ebreak_vector>:
      10:	a8c5                	j	100 <ebreak_hand>
      12:	0000                	unimp
      14:	0000                	unimp
      16:	0000                	unimp
      18:	a001                	j	18 <ebreak_vector+0x8>
      1a:	0000                	unimp
      1c:	a001                	j	1c <ebreak_vector+0xc>
	...
      3e:	0000                	unimp
      40:	2710206f          	j	2ab0 <UART0_handler>
      44:	2890206f          	j	2acc <UART1_handler>
      48:	2a10206f          	j	2ae8 <SPI0_handler>
      4c:	2b90206f          	j	2b04 <SPI1_handler>
      50:	3790206f          	j	2bc8 <IRQ>
      54:	3750206f          	j	2bc8 <IRQ>
      58:	2c90206f          	j	2b20 <TMR0_handler>
      5c:	2e10206f          	j	2b3c <TMR1_handler>
      60:	2f90206f          	j	2b58 <TMR2_handler>
      64:	3110206f          	j	2b74 <TMR3_handler>
      68:	3290206f          	j	2b90 <WDT0_handler>
      6c:	3410206f          	j	2bac <WDT1_handler>
      70:	3590206f          	j	2bc8 <IRQ>
      74:	3550206f          	j	2bc8 <IRQ>
      78:	3510206f          	j	2bc8 <IRQ>
      7c:	34d0206f          	j	2bc8 <IRQ>

00000080 <reset_hand>:
      80:	4281                	li	t0,0
      82:	30429073          	csrw	mie,t0

00000086 <_start>:
      86:	4401                	li	s0,0
      88:	4481                	li	s1,0
      8a:	4901                	li	s2,0
      8c:	4981                	li	s3,0
      8e:	4a01                	li	s4,0
      90:	4a81                	li	s5,0
      92:	4b01                	li	s6,0
      94:	4b81                	li	s7,0
      96:	4c01                	li	s8,0
      98:	4c81                	li	s9,0
      9a:	4d01                	li	s10,0
      9c:	4d81                	li	s11,0
      9e:	a28d                	j	200 <___App>
      a0:	00000013          	nop
      a4:	00000013          	nop
      a8:	00000013          	nop
      ac:	00000013          	nop
      b0:	00000013          	nop
      b4:	00000013          	nop
      b8:	00000013          	nop
      bc:	00000013          	nop
      c0:	00000013          	nop
      c4:	00000013          	nop
      c8:	00000013          	nop
      cc:	00000013          	nop
      d0:	00000013          	nop
      d4:	00000013          	nop
      d8:	00000013          	nop
      dc:	00000013          	nop
      e0:	00000013          	nop
      e4:	00000013          	nop
      e8:	00000013          	nop
      ec:	00000013          	nop
      f0:	00000013          	nop
      f4:	00000013          	nop
      f8:	00000013          	nop
      fc:	00000013          	nop

00000100 <ebreak_hand>:
     100:	2c90206f          	j	2bc8 <IRQ>
     104:	00000013          	nop
     108:	00000013          	nop
     10c:	00000013          	nop
     110:	00000013          	nop
     114:	00000013          	nop
     118:	00000013          	nop
     11c:	00000013          	nop
     120:	00000013          	nop
     124:	00000013          	nop
     128:	00000013          	nop
     12c:	00000013          	nop
     130:	00000013          	nop
     134:	00000013          	nop
     138:	00000013          	nop
     13c:	00000013          	nop
     140:	00000013          	nop
     144:	00000013          	nop
     148:	00000013          	nop
     14c:	00000013          	nop
     150:	00000013          	nop
     154:	00000013          	nop
     158:	00000013          	nop
     15c:	00000013          	nop
     160:	00000013          	nop
     164:	00000013          	nop
     168:	00000013          	nop
     16c:	00000013          	nop
     170:	00000013          	nop
     174:	00000013          	nop
     178:	00000013          	nop
     17c:	00000013          	nop
     180:	00000013          	nop
     184:	00000013          	nop
     188:	00000013          	nop
     18c:	00000013          	nop
     190:	00000013          	nop
     194:	00000013          	nop
     198:	00000013          	nop
     19c:	00000013          	nop
     1a0:	00000013          	nop
     1a4:	00000013          	nop
     1a8:	00000013          	nop
     1ac:	00000013          	nop
     1b0:	00000013          	nop
     1b4:	00000013          	nop
     1b8:	00000013          	nop
     1bc:	00000013          	nop
     1c0:	00000013          	nop
     1c4:	00000013          	nop
     1c8:	00000013          	nop
     1cc:	00000013          	nop
     1d0:	00000013          	nop
     1d4:	00000013          	nop
     1d8:	00000013          	nop
     1dc:	00000013          	nop
     1e0:	00000013          	nop
     1e4:	00000013          	nop
     1e8:	00000013          	nop
     1ec:	00000013          	nop
     1f0:	00000013          	nop
     1f4:	00000013          	nop
     1f8:	00000013          	nop
     1fc:	00000013          	nop

00000200 <___App>:
     200:	20000517          	auipc	a0,0x20000
     204:	e0050513          	addi	a0,a0,-512 # 20000000 <__bss_end__>
     208:	20000597          	auipc	a1,0x20000
     20c:	df858593          	addi	a1,a1,-520 # 20000000 <__bss_end__>
     210:	00b55763          	bge	a0,a1,21e <end_init_bss>

00000214 <loop_init_bss>:
     214:	00052023          	sw	zero,0(a0)
     218:	0511                	addi	a0,a0,4
     21a:	feb54de3          	blt	a0,a1,214 <loop_init_bss>

0000021e <end_init_bss>:
     21e:	00003517          	auipc	a0,0x3
     222:	04250513          	addi	a0,a0,66 # 3260 <__idata__>
     226:	20000597          	auipc	a1,0x20000
     22a:	dda58593          	addi	a1,a1,-550 # 20000000 <__bss_end__>
     22e:	20000617          	auipc	a2,0x20000
     232:	dd260613          	addi	a2,a2,-558 # 20000000 <__bss_end__>
     236:	00c5d863          	bge	a1,a2,246 <end_init_data>

0000023a <loop_init_data>:
     23a:	4114                	lw	a3,0(a0)
     23c:	c194                	sw	a3,0(a1)
     23e:	0511                	addi	a0,a0,4
     240:	0591                	addi	a1,a1,4
     242:	fec5cce3          	blt	a1,a2,23a <loop_init_data>

00000246 <end_init_data>:
     246:	20003137          	lui	sp,0x20003
     24a:	ffc10113          	addi	sp,sp,-4 # 20002ffc <_fstack>
     24e:	1d3020ef          	jal	ra,2c20 <main>
     252:	9002                	ebreak
     254:	00000013          	nop
     258:	00000013          	nop
     25c:	00000013          	nop
     260:	00000013          	nop
     264:	00000013          	nop
     268:	00000013          	nop
     26c:	00000013          	nop
     270:	00000013          	nop
     274:	00000013          	nop
     278:	00000013          	nop
     27c:	00000013          	nop
     280:	00000013          	nop
     284:	00000013          	nop
     288:	00000013          	nop
     28c:	00000013          	nop
     290:	00000013          	nop
     294:	00000013          	nop
     298:	00000013          	nop
     29c:	00000013          	nop
     2a0:	00000013          	nop
     2a4:	00000013          	nop
     2a8:	00000013          	nop
     2ac:	00000013          	nop
     2b0:	00000013          	nop
     2b4:	00000013          	nop
     2b8:	00000013          	nop
     2bc:	00000013          	nop
     2c0:	00000013          	nop
     2c4:	00000013          	nop
     2c8:	00000013          	nop
     2cc:	00000013          	nop
     2d0:	00000013          	nop
     2d4:	00000013          	nop
     2d8:	00000013          	nop
     2dc:	00000013          	nop
     2e0:	00000013          	nop
     2e4:	00000013          	nop
     2e8:	00000013          	nop
     2ec:	00000013          	nop
     2f0:	00000013          	nop
     2f4:	00000013          	nop
     2f8:	00000013          	nop
     2fc:	00000013          	nop
	...

00000310 <enable_global_interrupt>:
     310:	1141                	addi	sp,sp,-16
     312:	c622                	sw	s0,12(sp)
     314:	0800                	addi	s0,sp,16
     316:	47a1                	li	a5,8
     318:	3007a073          	csrs	mstatus,a5
     31c:	0001                	nop
     31e:	4432                	lw	s0,12(sp)
     320:	0141                	addi	sp,sp,16
     322:	8082                	ret

00000324 <enable_irq0>:
     324:	1141                	addi	sp,sp,-16
     326:	c622                	sw	s0,12(sp)
     328:	0800                	addi	s0,sp,16
     32a:	67c1                	lui	a5,0x10
     32c:	3047a073          	csrs	mie,a5
     330:	0001                	nop
     332:	4432                	lw	s0,12(sp)
     334:	0141                	addi	sp,sp,16
     336:	8082                	ret

00000338 <enable_irq1>:
     338:	1141                	addi	sp,sp,-16
     33a:	c622                	sw	s0,12(sp)
     33c:	0800                	addi	s0,sp,16
     33e:	000207b7          	lui	a5,0x20
     342:	3047a073          	csrs	mie,a5
     346:	0001                	nop
     348:	4432                	lw	s0,12(sp)
     34a:	0141                	addi	sp,sp,16
     34c:	8082                	ret
     34e:	0001                	nop

00000350 <enable_irq2>:
     350:	1141                	addi	sp,sp,-16
     352:	c622                	sw	s0,12(sp)
     354:	0800                	addi	s0,sp,16
     356:	000407b7          	lui	a5,0x40
     35a:	3047a073          	csrs	mie,a5
     35e:	0001                	nop
     360:	4432                	lw	s0,12(sp)
     362:	0141                	addi	sp,sp,16
     364:	8082                	ret
     366:	0001                	nop

00000368 <enable_irq3>:
     368:	1141                	addi	sp,sp,-16
     36a:	c622                	sw	s0,12(sp)
     36c:	0800                	addi	s0,sp,16
     36e:	000807b7          	lui	a5,0x80
     372:	3047a073          	csrs	mie,a5
     376:	0001                	nop
     378:	4432                	lw	s0,12(sp)
     37a:	0141                	addi	sp,sp,16
     37c:	8082                	ret
     37e:	0001                	nop

00000380 <enable_irq4>:
     380:	1141                	addi	sp,sp,-16
     382:	c622                	sw	s0,12(sp)
     384:	0800                	addi	s0,sp,16
     386:	001007b7          	lui	a5,0x100
     38a:	3047a073          	csrs	mie,a5
     38e:	0001                	nop
     390:	4432                	lw	s0,12(sp)
     392:	0141                	addi	sp,sp,16
     394:	8082                	ret
     396:	0001                	nop

00000398 <enable_irq5>:
     398:	1141                	addi	sp,sp,-16
     39a:	c622                	sw	s0,12(sp)
     39c:	0800                	addi	s0,sp,16
     39e:	002007b7          	lui	a5,0x200
     3a2:	3047a073          	csrs	mie,a5
     3a6:	0001                	nop
     3a8:	4432                	lw	s0,12(sp)
     3aa:	0141                	addi	sp,sp,16
     3ac:	8082                	ret
     3ae:	0001                	nop

000003b0 <enable_irq6>:
     3b0:	1141                	addi	sp,sp,-16
     3b2:	c622                	sw	s0,12(sp)
     3b4:	0800                	addi	s0,sp,16
     3b6:	004007b7          	lui	a5,0x400
     3ba:	3047a073          	csrs	mie,a5
     3be:	0001                	nop
     3c0:	4432                	lw	s0,12(sp)
     3c2:	0141                	addi	sp,sp,16
     3c4:	8082                	ret
     3c6:	0001                	nop

000003c8 <enable_irq7>:
     3c8:	1141                	addi	sp,sp,-16
     3ca:	c622                	sw	s0,12(sp)
     3cc:	0800                	addi	s0,sp,16
     3ce:	008007b7          	lui	a5,0x800
     3d2:	3047a073          	csrs	mie,a5
     3d6:	0001                	nop
     3d8:	4432                	lw	s0,12(sp)
     3da:	0141                	addi	sp,sp,16
     3dc:	8082                	ret
     3de:	0001                	nop

000003e0 <enable_irq8>:
     3e0:	1141                	addi	sp,sp,-16
     3e2:	c622                	sw	s0,12(sp)
     3e4:	0800                	addi	s0,sp,16
     3e6:	010007b7          	lui	a5,0x1000
     3ea:	3047a073          	csrs	mie,a5
     3ee:	0001                	nop
     3f0:	4432                	lw	s0,12(sp)
     3f2:	0141                	addi	sp,sp,16
     3f4:	8082                	ret
     3f6:	0001                	nop

000003f8 <enable_irq9>:
     3f8:	1141                	addi	sp,sp,-16
     3fa:	c622                	sw	s0,12(sp)
     3fc:	0800                	addi	s0,sp,16
     3fe:	020007b7          	lui	a5,0x2000
     402:	3047a073          	csrs	mie,a5
     406:	0001                	nop
     408:	4432                	lw	s0,12(sp)
     40a:	0141                	addi	sp,sp,16
     40c:	8082                	ret
     40e:	0001                	nop

00000410 <enable_irq10>:
     410:	1141                	addi	sp,sp,-16
     412:	c622                	sw	s0,12(sp)
     414:	0800                	addi	s0,sp,16
     416:	040007b7          	lui	a5,0x4000
     41a:	3047a073          	csrs	mie,a5
     41e:	0001                	nop
     420:	4432                	lw	s0,12(sp)
     422:	0141                	addi	sp,sp,16
     424:	8082                	ret
     426:	0001                	nop

00000428 <enable_irq11>:
     428:	1141                	addi	sp,sp,-16
     42a:	c622                	sw	s0,12(sp)
     42c:	0800                	addi	s0,sp,16
     42e:	080007b7          	lui	a5,0x8000
     432:	3047a073          	csrs	mie,a5
     436:	0001                	nop
     438:	4432                	lw	s0,12(sp)
     43a:	0141                	addi	sp,sp,16
     43c:	8082                	ret
     43e:	0001                	nop

00000440 <gpio_set_dir>:
     440:	1101                	addi	sp,sp,-32
     442:	ce22                	sw	s0,28(sp)
     444:	1000                	addi	s0,sp,32
     446:	fea42623          	sw	a0,-20(s0)
     44a:	480007b7          	lui	a5,0x48000
     44e:	07c1                	addi	a5,a5,16
     450:	fec42703          	lw	a4,-20(s0)
     454:	c398                	sw	a4,0(a5)
     456:	0001                	nop
     458:	4472                	lw	s0,28(sp)
     45a:	6105                	addi	sp,sp,32
     45c:	8082                	ret
     45e:	0001                	nop

00000460 <gpio_write>:
     460:	1101                	addi	sp,sp,-32
     462:	ce22                	sw	s0,28(sp)
     464:	1000                	addi	s0,sp,32
     466:	fea42623          	sw	a0,-20(s0)
     46a:	480007b7          	lui	a5,0x48000
     46e:	0791                	addi	a5,a5,4
     470:	fec42703          	lw	a4,-20(s0)
     474:	c398                	sw	a4,0(a5)
     476:	0001                	nop
     478:	4472                	lw	s0,28(sp)
     47a:	6105                	addi	sp,sp,32
     47c:	8082                	ret
     47e:	0001                	nop

00000480 <gpio_read>:
     480:	1141                	addi	sp,sp,-16
     482:	c622                	sw	s0,12(sp)
     484:	0800                	addi	s0,sp,16
     486:	480007b7          	lui	a5,0x48000
     48a:	439c                	lw	a5,0(a5)
     48c:	853e                	mv	a0,a5
     48e:	4432                	lw	s0,12(sp)
     490:	0141                	addi	sp,sp,16
     492:	8082                	ret

00000494 <gpio_pull>:
     494:	1101                	addi	sp,sp,-32
     496:	ce22                	sw	s0,28(sp)
     498:	1000                	addi	s0,sp,32
     49a:	87aa                	mv	a5,a0
     49c:	fef407a3          	sb	a5,-17(s0)
     4a0:	480007b7          	lui	a5,0x48000
     4a4:	07b1                	addi	a5,a5,12
     4a6:	0007a023          	sw	zero,0(a5) # 48000000 <_fstack+0x27ffd004>
     4aa:	480007b7          	lui	a5,0x48000
     4ae:	07a1                	addi	a5,a5,8
     4b0:	0007a023          	sw	zero,0(a5) # 48000000 <_fstack+0x27ffd004>
     4b4:	fef44783          	lbu	a5,-17(s0)
     4b8:	e799                	bnez	a5,4c6 <gpio_pull+0x32>
     4ba:	480007b7          	lui	a5,0x48000
     4be:	07b1                	addi	a5,a5,12
     4c0:	4705                	li	a4,1
     4c2:	c398                	sw	a4,0(a5)
     4c4:	a031                	j	4d0 <gpio_pull+0x3c>
     4c6:	480007b7          	lui	a5,0x48000
     4ca:	07a1                	addi	a5,a5,8
     4cc:	4705                	li	a4,1
     4ce:	c398                	sw	a4,0(a5)
     4d0:	0001                	nop
     4d2:	4472                	lw	s0,28(sp)
     4d4:	6105                	addi	sp,sp,32
     4d6:	8082                	ret

000004d8 <gpio_im>:
     4d8:	1101                	addi	sp,sp,-32
     4da:	ce22                	sw	s0,28(sp)
     4dc:	1000                	addi	s0,sp,32
     4de:	fea42623          	sw	a0,-20(s0)
     4e2:	480007b7          	lui	a5,0x48000
     4e6:	07d1                	addi	a5,a5,20
     4e8:	fec42703          	lw	a4,-20(s0)
     4ec:	c398                	sw	a4,0(a5)
     4ee:	0001                	nop
     4f0:	4472                	lw	s0,28(sp)
     4f2:	6105                	addi	sp,sp,32
     4f4:	8082                	ret
     4f6:	0001                	nop

000004f8 <uart_init>:
     4f8:	1101                	addi	sp,sp,-32
     4fa:	ce22                	sw	s0,28(sp)
     4fc:	1000                	addi	s0,sp,32
     4fe:	fea42623          	sw	a0,-20(s0)
     502:	feb42423          	sw	a1,-24(s0)
     506:	fec42703          	lw	a4,-20(s0)
     50a:	4785                	li	a5,1
     50c:	02f71363          	bne	a4,a5,532 <uart_init+0x3a>
     510:	401007b7          	lui	a5,0x40100
     514:	07a1                	addi	a5,a5,8
     516:	fe842703          	lw	a4,-24(s0)
     51a:	c398                	sw	a4,0(a5)
     51c:	401007b7          	lui	a5,0x40100
     520:	07b1                	addi	a5,a5,12
     522:	0007a023          	sw	zero,0(a5) # 40100000 <_fstack+0x200fd004>
     526:	401007b7          	lui	a5,0x40100
     52a:	0791                	addi	a5,a5,4
     52c:	4705                	li	a4,1
     52e:	c398                	sw	a4,0(a5)
     530:	a025                	j	558 <uart_init+0x60>
     532:	fec42783          	lw	a5,-20(s0)
     536:	e38d                	bnez	a5,558 <uart_init+0x60>
     538:	400007b7          	lui	a5,0x40000
     53c:	07a1                	addi	a5,a5,8
     53e:	fe842703          	lw	a4,-24(s0)
     542:	c398                	sw	a4,0(a5)
     544:	400007b7          	lui	a5,0x40000
     548:	07b1                	addi	a5,a5,12
     54a:	0007a023          	sw	zero,0(a5) # 40000000 <_fstack+0x1fffd004>
     54e:	400007b7          	lui	a5,0x40000
     552:	0791                	addi	a5,a5,4
     554:	4705                	li	a4,1
     556:	c398                	sw	a4,0(a5)
     558:	0001                	nop
     55a:	853e                	mv	a0,a5
     55c:	4472                	lw	s0,28(sp)
     55e:	6105                	addi	sp,sp,32
     560:	8082                	ret
     562:	0001                	nop

00000564 <uart_puts>:
     564:	7179                	addi	sp,sp,-48
     566:	d622                	sw	s0,44(sp)
     568:	1800                	addi	s0,sp,48
     56a:	fca42e23          	sw	a0,-36(s0)
     56e:	fcb42c23          	sw	a1,-40(s0)
     572:	fcc42a23          	sw	a2,-44(s0)
     576:	fdc42703          	lw	a4,-36(s0)
     57a:	4785                	li	a5,1
     57c:	00e7f463          	bgeu	a5,a4,584 <uart_puts+0x20>
     580:	57fd                	li	a5,-1
     582:	a849                	j	614 <uart_puts+0xb0>
     584:	fdc42783          	lw	a5,-36(s0)
     588:	e3a9                	bnez	a5,5ca <uart_puts+0x66>
     58a:	fe042623          	sw	zero,-20(s0)
     58e:	a03d                	j	5bc <uart_puts+0x58>
     590:	0001                	nop
     592:	400007b7          	lui	a5,0x40000
     596:	0791                	addi	a5,a5,4
     598:	439c                	lw	a5,0(a5)
     59a:	8b85                	andi	a5,a5,1
     59c:	fbfd                	bnez	a5,592 <uart_puts+0x2e>
     59e:	fec42783          	lw	a5,-20(s0)
     5a2:	fd842703          	lw	a4,-40(s0)
     5a6:	97ba                	add	a5,a5,a4
     5a8:	0007c703          	lbu	a4,0(a5) # 40000000 <_fstack+0x1fffd004>
     5ac:	400007b7          	lui	a5,0x40000
     5b0:	c398                	sw	a4,0(a5)
     5b2:	fec42783          	lw	a5,-20(s0)
     5b6:	0785                	addi	a5,a5,1
     5b8:	fef42623          	sw	a5,-20(s0)
     5bc:	fec42783          	lw	a5,-20(s0)
     5c0:	fd442703          	lw	a4,-44(s0)
     5c4:	fce7e6e3          	bltu	a5,a4,590 <uart_puts+0x2c>
     5c8:	a0a9                	j	612 <uart_puts+0xae>
     5ca:	fdc42703          	lw	a4,-36(s0)
     5ce:	4785                	li	a5,1
     5d0:	04f71163          	bne	a4,a5,612 <uart_puts+0xae>
     5d4:	fe042623          	sw	zero,-20(s0)
     5d8:	a03d                	j	606 <uart_puts+0xa2>
     5da:	0001                	nop
     5dc:	401007b7          	lui	a5,0x40100
     5e0:	0791                	addi	a5,a5,4
     5e2:	439c                	lw	a5,0(a5)
     5e4:	8b85                	andi	a5,a5,1
     5e6:	fbfd                	bnez	a5,5dc <uart_puts+0x78>
     5e8:	fec42783          	lw	a5,-20(s0)
     5ec:	fd842703          	lw	a4,-40(s0)
     5f0:	97ba                	add	a5,a5,a4
     5f2:	0007c703          	lbu	a4,0(a5) # 40100000 <_fstack+0x200fd004>
     5f6:	401007b7          	lui	a5,0x40100
     5fa:	c398                	sw	a4,0(a5)
     5fc:	fec42783          	lw	a5,-20(s0)
     600:	0785                	addi	a5,a5,1
     602:	fef42623          	sw	a5,-20(s0)
     606:	fec42783          	lw	a5,-20(s0)
     60a:	fd442703          	lw	a4,-44(s0)
     60e:	fce7e6e3          	bltu	a5,a4,5da <uart_puts+0x76>
     612:	4781                	li	a5,0
     614:	853e                	mv	a0,a5
     616:	5432                	lw	s0,44(sp)
     618:	6145                	addi	sp,sp,48
     61a:	8082                	ret

0000061c <uart_gets>:
     61c:	7179                	addi	sp,sp,-48
     61e:	d622                	sw	s0,44(sp)
     620:	1800                	addi	s0,sp,48
     622:	fca42e23          	sw	a0,-36(s0)
     626:	fcb42c23          	sw	a1,-40(s0)
     62a:	fcc42a23          	sw	a2,-44(s0)
     62e:	fdc42703          	lw	a4,-36(s0)
     632:	4785                	li	a5,1
     634:	00e7f463          	bgeu	a5,a4,63c <uart_gets+0x20>
     638:	57fd                	li	a5,-1
     63a:	a841                	j	6ca <uart_gets+0xae>
     63c:	fdc42783          	lw	a5,-36(s0)
     640:	e3b9                	bnez	a5,686 <uart_gets+0x6a>
     642:	fe042623          	sw	zero,-20(s0)
     646:	a80d                	j	678 <uart_gets+0x5c>
     648:	0001                	nop
     64a:	400007b7          	lui	a5,0x40000
     64e:	0791                	addi	a5,a5,4
     650:	439c                	lw	a5,0(a5)
     652:	8ba1                	andi	a5,a5,8
     654:	fbfd                	bnez	a5,64a <uart_gets+0x2e>
     656:	400007b7          	lui	a5,0x40000
     65a:	4394                	lw	a3,0(a5)
     65c:	fec42783          	lw	a5,-20(s0)
     660:	fd842703          	lw	a4,-40(s0)
     664:	97ba                	add	a5,a5,a4
     666:	0ff6f713          	andi	a4,a3,255
     66a:	00e78023          	sb	a4,0(a5) # 40000000 <_fstack+0x1fffd004>
     66e:	fec42783          	lw	a5,-20(s0)
     672:	0785                	addi	a5,a5,1
     674:	fef42623          	sw	a5,-20(s0)
     678:	fec42783          	lw	a5,-20(s0)
     67c:	fd442703          	lw	a4,-44(s0)
     680:	fce7e4e3          	bltu	a5,a4,648 <uart_gets+0x2c>
     684:	a091                	j	6c8 <uart_gets+0xac>
     686:	fe042623          	sw	zero,-20(s0)
     68a:	a80d                	j	6bc <uart_gets+0xa0>
     68c:	0001                	nop
     68e:	401007b7          	lui	a5,0x40100
     692:	0791                	addi	a5,a5,4
     694:	439c                	lw	a5,0(a5)
     696:	8ba1                	andi	a5,a5,8
     698:	fbfd                	bnez	a5,68e <uart_gets+0x72>
     69a:	401007b7          	lui	a5,0x40100
     69e:	4394                	lw	a3,0(a5)
     6a0:	fec42783          	lw	a5,-20(s0)
     6a4:	fd842703          	lw	a4,-40(s0)
     6a8:	97ba                	add	a5,a5,a4
     6aa:	0ff6f713          	andi	a4,a3,255
     6ae:	00e78023          	sb	a4,0(a5) # 40100000 <_fstack+0x200fd004>
     6b2:	fec42783          	lw	a5,-20(s0)
     6b6:	0785                	addi	a5,a5,1
     6b8:	fef42623          	sw	a5,-20(s0)
     6bc:	fec42783          	lw	a5,-20(s0)
     6c0:	fd442703          	lw	a4,-44(s0)
     6c4:	fce7e4e3          	bltu	a5,a4,68c <uart_gets+0x70>
     6c8:	4781                	li	a5,0
     6ca:	853e                	mv	a0,a5
     6cc:	5432                	lw	s0,44(sp)
     6ce:	6145                	addi	sp,sp,48
     6d0:	8082                	ret
     6d2:	0001                	nop

000006d4 <uart_im>:
     6d4:	1101                	addi	sp,sp,-32
     6d6:	ce22                	sw	s0,28(sp)
     6d8:	1000                	addi	s0,sp,32
     6da:	fea42623          	sw	a0,-20(s0)
     6de:	feb42423          	sw	a1,-24(s0)
     6e2:	fec42703          	lw	a4,-20(s0)
     6e6:	4785                	li	a5,1
     6e8:	00e7f463          	bgeu	a5,a4,6f0 <uart_im+0x1c>
     6ec:	57fd                	li	a5,-1
     6ee:	a00d                	j	710 <uart_im+0x3c>
     6f0:	fec42783          	lw	a5,-20(s0)
     6f4:	eb81                	bnez	a5,704 <uart_im+0x30>
     6f6:	400007b7          	lui	a5,0x40000
     6fa:	07b1                	addi	a5,a5,12
     6fc:	fe842703          	lw	a4,-24(s0)
     700:	c398                	sw	a4,0(a5)
     702:	a039                	j	710 <uart_im+0x3c>
     704:	401007b7          	lui	a5,0x40100
     708:	07b1                	addi	a5,a5,12
     70a:	fe842703          	lw	a4,-24(s0)
     70e:	c398                	sw	a4,0(a5)
     710:	853e                	mv	a0,a5
     712:	4472                	lw	s0,28(sp)
     714:	6105                	addi	sp,sp,32
     716:	8082                	ret

00000718 <spi_init>:
     718:	7179                	addi	sp,sp,-48
     71a:	d622                	sw	s0,44(sp)
     71c:	1800                	addi	s0,sp,48
     71e:	fca42e23          	sw	a0,-36(s0)
     722:	87ae                	mv	a5,a1
     724:	8736                	mv	a4,a3
     726:	fcf40da3          	sb	a5,-37(s0)
     72a:	87b2                	mv	a5,a2
     72c:	fcf40d23          	sb	a5,-38(s0)
     730:	87ba                	mv	a5,a4
     732:	fcf40ca3          	sb	a5,-39(s0)
     736:	fe042623          	sw	zero,-20(s0)
     73a:	fdb44783          	lbu	a5,-37(s0)
     73e:	fec42703          	lw	a4,-20(s0)
     742:	8fd9                	or	a5,a5,a4
     744:	fef42623          	sw	a5,-20(s0)
     748:	fda44783          	lbu	a5,-38(s0)
     74c:	0786                	slli	a5,a5,0x1
     74e:	873e                	mv	a4,a5
     750:	fec42783          	lw	a5,-20(s0)
     754:	8fd9                	or	a5,a5,a4
     756:	fef42623          	sw	a5,-20(s0)
     75a:	fd944783          	lbu	a5,-39(s0)
     75e:	078a                	slli	a5,a5,0x2
     760:	fec42703          	lw	a4,-20(s0)
     764:	8fd9                	or	a5,a5,a4
     766:	fef42623          	sw	a5,-20(s0)
     76a:	fdc42703          	lw	a4,-36(s0)
     76e:	4785                	li	a5,1
     770:	00e7f463          	bgeu	a5,a4,778 <spi_init+0x60>
     774:	57fd                	li	a5,-1
     776:	a00d                	j	798 <spi_init+0x80>
     778:	fdc42783          	lw	a5,-36(s0)
     77c:	eb81                	bnez	a5,78c <spi_init+0x74>
     77e:	402007b7          	lui	a5,0x40200
     782:	07a1                	addi	a5,a5,8
     784:	fec42703          	lw	a4,-20(s0)
     788:	c398                	sw	a4,0(a5)
     78a:	a039                	j	798 <spi_init+0x80>
     78c:	403007b7          	lui	a5,0x40300
     790:	07a1                	addi	a5,a5,8
     792:	fec42703          	lw	a4,-20(s0)
     796:	c398                	sw	a4,0(a5)
     798:	853e                	mv	a0,a5
     79a:	5432                	lw	s0,44(sp)
     79c:	6145                	addi	sp,sp,48
     79e:	8082                	ret

000007a0 <spi_status>:
     7a0:	1101                	addi	sp,sp,-32
     7a2:	ce22                	sw	s0,28(sp)
     7a4:	1000                	addi	s0,sp,32
     7a6:	fea42623          	sw	a0,-20(s0)
     7aa:	fec42703          	lw	a4,-20(s0)
     7ae:	4785                	li	a5,1
     7b0:	00e7f463          	bgeu	a5,a4,7b8 <spi_status+0x18>
     7b4:	57fd                	li	a5,-1
     7b6:	a839                	j	7d4 <spi_status+0x34>
     7b8:	fec42783          	lw	a5,-20(s0)
     7bc:	e799                	bnez	a5,7ca <spi_status+0x2a>
     7be:	402007b7          	lui	a5,0x40200
     7c2:	07c1                	addi	a5,a5,16
     7c4:	439c                	lw	a5,0(a5)
     7c6:	8b85                	andi	a5,a5,1
     7c8:	a031                	j	7d4 <spi_status+0x34>
     7ca:	403007b7          	lui	a5,0x40300
     7ce:	07c1                	addi	a5,a5,16
     7d0:	439c                	lw	a5,0(a5)
     7d2:	8b85                	andi	a5,a5,1
     7d4:	853e                	mv	a0,a5
     7d6:	4472                	lw	s0,28(sp)
     7d8:	6105                	addi	sp,sp,32
     7da:	8082                	ret

000007dc <spi_read>:
     7dc:	1101                	addi	sp,sp,-32
     7de:	ce22                	sw	s0,28(sp)
     7e0:	1000                	addi	s0,sp,32
     7e2:	fea42623          	sw	a0,-20(s0)
     7e6:	fec42703          	lw	a4,-20(s0)
     7ea:	4785                	li	a5,1
     7ec:	00e7f563          	bgeu	a5,a4,7f6 <spi_read+0x1a>
     7f0:	0ff00793          	li	a5,255
     7f4:	a839                	j	812 <spi_read+0x36>
     7f6:	fec42783          	lw	a5,-20(s0)
     7fa:	e799                	bnez	a5,808 <spi_read+0x2c>
     7fc:	402007b7          	lui	a5,0x40200
     800:	439c                	lw	a5,0(a5)
     802:	0ff7f793          	andi	a5,a5,255
     806:	a031                	j	812 <spi_read+0x36>
     808:	403007b7          	lui	a5,0x40300
     80c:	439c                	lw	a5,0(a5)
     80e:	0ff7f793          	andi	a5,a5,255
     812:	853e                	mv	a0,a5
     814:	4472                	lw	s0,28(sp)
     816:	6105                	addi	sp,sp,32
     818:	8082                	ret
     81a:	0001                	nop

0000081c <spi_write>:
     81c:	1101                	addi	sp,sp,-32
     81e:	ce06                	sw	ra,28(sp)
     820:	cc22                	sw	s0,24(sp)
     822:	1000                	addi	s0,sp,32
     824:	fea42623          	sw	a0,-20(s0)
     828:	87ae                	mv	a5,a1
     82a:	fef405a3          	sb	a5,-21(s0)
     82e:	fec42703          	lw	a4,-20(s0)
     832:	4785                	li	a5,1
     834:	00e7f463          	bgeu	a5,a4,83c <spi_write+0x20>
     838:	57fd                	li	a5,-1
     83a:	a051                	j	8be <spi_write+0xa2>
     83c:	fec42783          	lw	a5,-20(s0)
     840:	e3a1                	bnez	a5,880 <spi_write+0x64>
     842:	402007b7          	lui	a5,0x40200
     846:	feb44703          	lbu	a4,-21(s0)
     84a:	c398                	sw	a4,0(a5)
     84c:	402007b7          	lui	a5,0x40200
     850:	0791                	addi	a5,a5,4
     852:	4398                	lw	a4,0(a5)
     854:	402007b7          	lui	a5,0x40200
     858:	0791                	addi	a5,a5,4
     85a:	00176713          	ori	a4,a4,1
     85e:	c398                	sw	a4,0(a5)
     860:	402007b7          	lui	a5,0x40200
     864:	0791                	addi	a5,a5,4
     866:	4398                	lw	a4,0(a5)
     868:	402007b7          	lui	a5,0x40200
     86c:	0791                	addi	a5,a5,4
     86e:	9b79                	andi	a4,a4,-2
     870:	c398                	sw	a4,0(a5)
     872:	0001                	nop
     874:	fec42503          	lw	a0,-20(s0)
     878:	3725                	jal	7a0 <spi_status>
     87a:	87aa                	mv	a5,a0
     87c:	dfe5                	beqz	a5,874 <spi_write+0x58>
     87e:	a83d                	j	8bc <spi_write+0xa0>
     880:	403007b7          	lui	a5,0x40300
     884:	feb44703          	lbu	a4,-21(s0)
     888:	c398                	sw	a4,0(a5)
     88a:	403007b7          	lui	a5,0x40300
     88e:	0791                	addi	a5,a5,4
     890:	4398                	lw	a4,0(a5)
     892:	403007b7          	lui	a5,0x40300
     896:	0791                	addi	a5,a5,4
     898:	00176713          	ori	a4,a4,1
     89c:	c398                	sw	a4,0(a5)
     89e:	403007b7          	lui	a5,0x40300
     8a2:	0791                	addi	a5,a5,4
     8a4:	4398                	lw	a4,0(a5)
     8a6:	403007b7          	lui	a5,0x40300
     8aa:	0791                	addi	a5,a5,4
     8ac:	9b79                	andi	a4,a4,-2
     8ae:	c398                	sw	a4,0(a5)
     8b0:	0001                	nop
     8b2:	fec42503          	lw	a0,-20(s0)
     8b6:	35ed                	jal	7a0 <spi_status>
     8b8:	87aa                	mv	a5,a0
     8ba:	dfe5                	beqz	a5,8b2 <spi_write+0x96>
     8bc:	4781                	li	a5,0
     8be:	853e                	mv	a0,a5
     8c0:	40f2                	lw	ra,28(sp)
     8c2:	4462                	lw	s0,24(sp)
     8c4:	6105                	addi	sp,sp,32
     8c6:	8082                	ret

000008c8 <spi_start>:
     8c8:	1101                	addi	sp,sp,-32
     8ca:	ce22                	sw	s0,28(sp)
     8cc:	1000                	addi	s0,sp,32
     8ce:	fea42623          	sw	a0,-20(s0)
     8d2:	fec42703          	lw	a4,-20(s0)
     8d6:	4785                	li	a5,1
     8d8:	00e7f463          	bgeu	a5,a4,8e0 <spi_start+0x18>
     8dc:	57fd                	li	a5,-1
     8de:	a815                	j	912 <spi_start+0x4a>
     8e0:	fec42783          	lw	a5,-20(s0)
     8e4:	ef81                	bnez	a5,8fc <spi_start+0x34>
     8e6:	402007b7          	lui	a5,0x40200
     8ea:	0791                	addi	a5,a5,4
     8ec:	4398                	lw	a4,0(a5)
     8ee:	402007b7          	lui	a5,0x40200
     8f2:	0791                	addi	a5,a5,4
     8f4:	00276713          	ori	a4,a4,2
     8f8:	c398                	sw	a4,0(a5)
     8fa:	a819                	j	910 <spi_start+0x48>
     8fc:	403007b7          	lui	a5,0x40300
     900:	0791                	addi	a5,a5,4
     902:	4398                	lw	a4,0(a5)
     904:	403007b7          	lui	a5,0x40300
     908:	0791                	addi	a5,a5,4
     90a:	00276713          	ori	a4,a4,2
     90e:	c398                	sw	a4,0(a5)
     910:	4781                	li	a5,0
     912:	853e                	mv	a0,a5
     914:	4472                	lw	s0,28(sp)
     916:	6105                	addi	sp,sp,32
     918:	8082                	ret
     91a:	0001                	nop

0000091c <spi_end>:
     91c:	1101                	addi	sp,sp,-32
     91e:	ce22                	sw	s0,28(sp)
     920:	1000                	addi	s0,sp,32
     922:	fea42623          	sw	a0,-20(s0)
     926:	fec42703          	lw	a4,-20(s0)
     92a:	4785                	li	a5,1
     92c:	00e7f463          	bgeu	a5,a4,934 <spi_end+0x18>
     930:	57fd                	li	a5,-1
     932:	a805                	j	962 <spi_end+0x46>
     934:	fec42783          	lw	a5,-20(s0)
     938:	eb99                	bnez	a5,94e <spi_end+0x32>
     93a:	402007b7          	lui	a5,0x40200
     93e:	0791                	addi	a5,a5,4
     940:	4398                	lw	a4,0(a5)
     942:	402007b7          	lui	a5,0x40200
     946:	0791                	addi	a5,a5,4
     948:	9b75                	andi	a4,a4,-3
     94a:	c398                	sw	a4,0(a5)
     94c:	a811                	j	960 <spi_end+0x44>
     94e:	403007b7          	lui	a5,0x40300
     952:	0791                	addi	a5,a5,4
     954:	4398                	lw	a4,0(a5)
     956:	403007b7          	lui	a5,0x40300
     95a:	0791                	addi	a5,a5,4
     95c:	9b75                	andi	a4,a4,-3
     95e:	c398                	sw	a4,0(a5)
     960:	4781                	li	a5,0
     962:	853e                	mv	a0,a5
     964:	4472                	lw	s0,28(sp)
     966:	6105                	addi	sp,sp,32
     968:	8082                	ret
     96a:	0001                	nop

0000096c <spi_im>:
     96c:	1101                	addi	sp,sp,-32
     96e:	ce22                	sw	s0,28(sp)
     970:	1000                	addi	s0,sp,32
     972:	fea42623          	sw	a0,-20(s0)
     976:	feb42423          	sw	a1,-24(s0)
     97a:	fec42703          	lw	a4,-20(s0)
     97e:	4785                	li	a5,1
     980:	00e7f463          	bgeu	a5,a4,988 <spi_im+0x1c>
     984:	57fd                	li	a5,-1
     986:	a00d                	j	9a8 <spi_im+0x3c>
     988:	fec42783          	lw	a5,-20(s0)
     98c:	eb81                	bnez	a5,99c <spi_im+0x30>
     98e:	402007b7          	lui	a5,0x40200
     992:	07d1                	addi	a5,a5,20
     994:	fe842703          	lw	a4,-24(s0)
     998:	c398                	sw	a4,0(a5)
     99a:	a039                	j	9a8 <spi_im+0x3c>
     99c:	403007b7          	lui	a5,0x40300
     9a0:	07d1                	addi	a5,a5,20
     9a2:	fe842703          	lw	a4,-24(s0)
     9a6:	c398                	sw	a4,0(a5)
     9a8:	853e                	mv	a0,a5
     9aa:	4472                	lw	s0,28(sp)
     9ac:	6105                	addi	sp,sp,32
     9ae:	8082                	ret

000009b0 <i2c_init>:
     9b0:	1101                	addi	sp,sp,-32
     9b2:	ce22                	sw	s0,28(sp)
     9b4:	1000                	addi	s0,sp,32
     9b6:	fea42623          	sw	a0,-20(s0)
     9ba:	feb42423          	sw	a1,-24(s0)
     9be:	fec42703          	lw	a4,-20(s0)
     9c2:	4785                	li	a5,1
     9c4:	00e7f463          	bgeu	a5,a4,9cc <i2c_init+0x1c>
     9c8:	57fd                	li	a5,-1
     9ca:	a09d                	j	a30 <i2c_init+0x80>
     9cc:	fec42783          	lw	a5,-20(s0)
     9d0:	eb8d                	bnez	a5,a02 <i2c_init+0x52>
     9d2:	404007b7          	lui	a5,0x40400
     9d6:	fe842703          	lw	a4,-24(s0)
     9da:	0ff77713          	andi	a4,a4,255
     9de:	c398                	sw	a4,0(a5)
     9e0:	404007b7          	lui	a5,0x40400
     9e4:	0791                	addi	a5,a5,4
     9e6:	fe842683          	lw	a3,-24(s0)
     9ea:	6741                	lui	a4,0x10
     9ec:	f0070713          	addi	a4,a4,-256 # ff00 <Sig_out+0xcacc>
     9f0:	8f75                	and	a4,a4,a3
     9f2:	c398                	sw	a4,0(a5)
     9f4:	404007b7          	lui	a5,0x40400
     9f8:	07a1                	addi	a5,a5,8
     9fa:	0c000713          	li	a4,192
     9fe:	c398                	sw	a4,0(a5)
     a00:	a805                	j	a30 <i2c_init+0x80>
     a02:	405007b7          	lui	a5,0x40500
     a06:	fe842703          	lw	a4,-24(s0)
     a0a:	0ff77713          	andi	a4,a4,255
     a0e:	c398                	sw	a4,0(a5)
     a10:	405007b7          	lui	a5,0x40500
     a14:	0791                	addi	a5,a5,4
     a16:	fe842683          	lw	a3,-24(s0)
     a1a:	6741                	lui	a4,0x10
     a1c:	f0070713          	addi	a4,a4,-256 # ff00 <Sig_out+0xcacc>
     a20:	8f75                	and	a4,a4,a3
     a22:	c398                	sw	a4,0(a5)
     a24:	405007b7          	lui	a5,0x40500
     a28:	07a1                	addi	a5,a5,8
     a2a:	0c000713          	li	a4,192
     a2e:	c398                	sw	a4,0(a5)
     a30:	853e                	mv	a0,a5
     a32:	4472                	lw	s0,28(sp)
     a34:	6105                	addi	sp,sp,32
     a36:	8082                	ret

00000a38 <i2c_send>:
     a38:	1101                	addi	sp,sp,-32
     a3a:	ce22                	sw	s0,28(sp)
     a3c:	1000                	addi	s0,sp,32
     a3e:	fea42623          	sw	a0,-20(s0)
     a42:	87ae                	mv	a5,a1
     a44:	8732                	mv	a4,a2
     a46:	fef405a3          	sb	a5,-21(s0)
     a4a:	87ba                	mv	a5,a4
     a4c:	fef40523          	sb	a5,-22(s0)
     a50:	fec42703          	lw	a4,-20(s0)
     a54:	4785                	li	a5,1
     a56:	00e7f463          	bgeu	a5,a4,a5e <i2c_send+0x26>
     a5a:	57fd                	li	a5,-1
     a5c:	aa29                	j	b76 <i2c_send+0x13e>
     a5e:	fec42783          	lw	a5,-20(s0)
     a62:	e7d1                	bnez	a5,aee <i2c_send+0xb6>
     a64:	404007b7          	lui	a5,0x40400
     a68:	07b1                	addi	a5,a5,12
     a6a:	feb44703          	lbu	a4,-21(s0)
     a6e:	c398                	sw	a4,0(a5)
     a70:	404007b7          	lui	a5,0x40400
     a74:	07d1                	addi	a5,a5,20
     a76:	09000713          	li	a4,144
     a7a:	c398                	sw	a4,0(a5)
     a7c:	0001                	nop
     a7e:	404007b7          	lui	a5,0x40400
     a82:	07e1                	addi	a5,a5,24
     a84:	439c                	lw	a5,0(a5)
     a86:	8b89                	andi	a5,a5,2
     a88:	fbfd                	bnez	a5,a7e <i2c_send+0x46>
     a8a:	404007b7          	lui	a5,0x40400
     a8e:	07e1                	addi	a5,a5,24
     a90:	439c                	lw	a5,0(a5)
     a92:	0807f793          	andi	a5,a5,128
     a96:	cb89                	beqz	a5,aa8 <i2c_send+0x70>
     a98:	404007b7          	lui	a5,0x40400
     a9c:	07d1                	addi	a5,a5,20
     a9e:	04000713          	li	a4,64
     aa2:	c398                	sw	a4,0(a5)
     aa4:	4781                	li	a5,0
     aa6:	a8c1                	j	b76 <i2c_send+0x13e>
     aa8:	404007b7          	lui	a5,0x40400
     aac:	07b1                	addi	a5,a5,12
     aae:	fea44703          	lbu	a4,-22(s0)
     ab2:	c398                	sw	a4,0(a5)
     ab4:	404007b7          	lui	a5,0x40400
     ab8:	07d1                	addi	a5,a5,20
     aba:	4741                	li	a4,16
     abc:	c398                	sw	a4,0(a5)
     abe:	0001                	nop
     ac0:	404007b7          	lui	a5,0x40400
     ac4:	07e1                	addi	a5,a5,24
     ac6:	439c                	lw	a5,0(a5)
     ac8:	8b89                	andi	a5,a5,2
     aca:	fbfd                	bnez	a5,ac0 <i2c_send+0x88>
     acc:	404007b7          	lui	a5,0x40400
     ad0:	07d1                	addi	a5,a5,20
     ad2:	04000713          	li	a4,64
     ad6:	c398                	sw	a4,0(a5)
     ad8:	404007b7          	lui	a5,0x40400
     adc:	07e1                	addi	a5,a5,24
     ade:	439c                	lw	a5,0(a5)
     ae0:	0807f793          	andi	a5,a5,128
     ae4:	c399                	beqz	a5,aea <i2c_send+0xb2>
     ae6:	4781                	li	a5,0
     ae8:	a079                	j	b76 <i2c_send+0x13e>
     aea:	4785                	li	a5,1
     aec:	a069                	j	b76 <i2c_send+0x13e>
     aee:	405007b7          	lui	a5,0x40500
     af2:	07b1                	addi	a5,a5,12
     af4:	feb44703          	lbu	a4,-21(s0)
     af8:	c398                	sw	a4,0(a5)
     afa:	405007b7          	lui	a5,0x40500
     afe:	07d1                	addi	a5,a5,20
     b00:	09000713          	li	a4,144
     b04:	c398                	sw	a4,0(a5)
     b06:	0001                	nop
     b08:	405007b7          	lui	a5,0x40500
     b0c:	07e1                	addi	a5,a5,24
     b0e:	439c                	lw	a5,0(a5)
     b10:	8b89                	andi	a5,a5,2
     b12:	fbfd                	bnez	a5,b08 <i2c_send+0xd0>
     b14:	405007b7          	lui	a5,0x40500
     b18:	07e1                	addi	a5,a5,24
     b1a:	439c                	lw	a5,0(a5)
     b1c:	0807f793          	andi	a5,a5,128
     b20:	cb89                	beqz	a5,b32 <i2c_send+0xfa>
     b22:	405007b7          	lui	a5,0x40500
     b26:	07d1                	addi	a5,a5,20
     b28:	04000713          	li	a4,64
     b2c:	c398                	sw	a4,0(a5)
     b2e:	4781                	li	a5,0
     b30:	a099                	j	b76 <i2c_send+0x13e>
     b32:	405007b7          	lui	a5,0x40500
     b36:	07b1                	addi	a5,a5,12
     b38:	fea44703          	lbu	a4,-22(s0)
     b3c:	c398                	sw	a4,0(a5)
     b3e:	405007b7          	lui	a5,0x40500
     b42:	07d1                	addi	a5,a5,20
     b44:	4741                	li	a4,16
     b46:	c398                	sw	a4,0(a5)
     b48:	0001                	nop
     b4a:	405007b7          	lui	a5,0x40500
     b4e:	07e1                	addi	a5,a5,24
     b50:	439c                	lw	a5,0(a5)
     b52:	8b89                	andi	a5,a5,2
     b54:	fbfd                	bnez	a5,b4a <i2c_send+0x112>
     b56:	405007b7          	lui	a5,0x40500
     b5a:	07d1                	addi	a5,a5,20
     b5c:	04000713          	li	a4,64
     b60:	c398                	sw	a4,0(a5)
     b62:	405007b7          	lui	a5,0x40500
     b66:	07e1                	addi	a5,a5,24
     b68:	439c                	lw	a5,0(a5)
     b6a:	0807f793          	andi	a5,a5,128
     b6e:	c399                	beqz	a5,b74 <i2c_send+0x13c>
     b70:	4781                	li	a5,0
     b72:	a011                	j	b76 <i2c_send+0x13e>
     b74:	4785                	li	a5,1
     b76:	853e                	mv	a0,a5
     b78:	4472                	lw	s0,28(sp)
     b7a:	6105                	addi	sp,sp,32
     b7c:	8082                	ret
     b7e:	0001                	nop

00000b80 <pwm_init>:
     b80:	1101                	addi	sp,sp,-32
     b82:	ce22                	sw	s0,28(sp)
     b84:	1000                	addi	s0,sp,32
     b86:	fea42623          	sw	a0,-20(s0)
     b8a:	feb42423          	sw	a1,-24(s0)
     b8e:	fec42223          	sw	a2,-28(s0)
     b92:	fed42023          	sw	a3,-32(s0)
     b96:	fec42703          	lw	a4,-20(s0)
     b9a:	4785                	li	a5,1
     b9c:	00e7f463          	bgeu	a5,a4,ba4 <pwm_init+0x24>
     ba0:	57fd                	li	a5,-1
     ba2:	a891                	j	bf6 <pwm_init+0x76>
     ba4:	fec42783          	lw	a5,-20(s0)
     ba8:	e785                	bnez	a5,bd0 <pwm_init+0x50>
     baa:	406007b7          	lui	a5,0x40600
     bae:	0791                	addi	a5,a5,4
     bb0:	fe842703          	lw	a4,-24(s0)
     bb4:	c398                	sw	a4,0(a5)
     bb6:	406007b7          	lui	a5,0x40600
     bba:	07a1                	addi	a5,a5,8
     bbc:	fe442703          	lw	a4,-28(s0)
     bc0:	c398                	sw	a4,0(a5)
     bc2:	406007b7          	lui	a5,0x40600
     bc6:	07c1                	addi	a5,a5,16
     bc8:	fe042703          	lw	a4,-32(s0)
     bcc:	c398                	sw	a4,0(a5)
     bce:	a01d                	j	bf4 <pwm_init+0x74>
     bd0:	407007b7          	lui	a5,0x40700
     bd4:	0791                	addi	a5,a5,4
     bd6:	fe842703          	lw	a4,-24(s0)
     bda:	c398                	sw	a4,0(a5)
     bdc:	407007b7          	lui	a5,0x40700
     be0:	07a1                	addi	a5,a5,8
     be2:	fe442703          	lw	a4,-28(s0)
     be6:	c398                	sw	a4,0(a5)
     be8:	407007b7          	lui	a5,0x40700
     bec:	07c1                	addi	a5,a5,16
     bee:	fe042703          	lw	a4,-32(s0)
     bf2:	c398                	sw	a4,0(a5)
     bf4:	4781                	li	a5,0
     bf6:	853e                	mv	a0,a5
     bf8:	4472                	lw	s0,28(sp)
     bfa:	6105                	addi	sp,sp,32
     bfc:	8082                	ret
     bfe:	0001                	nop

00000c00 <pwm_enable>:
     c00:	1101                	addi	sp,sp,-32
     c02:	ce22                	sw	s0,28(sp)
     c04:	1000                	addi	s0,sp,32
     c06:	fea42623          	sw	a0,-20(s0)
     c0a:	fec42703          	lw	a4,-20(s0)
     c0e:	4785                	li	a5,1
     c10:	00e7f463          	bgeu	a5,a4,c18 <pwm_enable+0x18>
     c14:	57fd                	li	a5,-1
     c16:	a015                	j	c3a <pwm_enable+0x3a>
     c18:	fec42783          	lw	a5,-20(s0)
     c1c:	eb81                	bnez	a5,c2c <pwm_enable+0x2c>
     c1e:	406007b7          	lui	a5,0x40600
     c22:	02078793          	addi	a5,a5,32 # 40600020 <_fstack+0x205fd024>
     c26:	4705                	li	a4,1
     c28:	c398                	sw	a4,0(a5)
     c2a:	a039                	j	c38 <pwm_enable+0x38>
     c2c:	407007b7          	lui	a5,0x40700
     c30:	02078793          	addi	a5,a5,32 # 40700020 <_fstack+0x206fd024>
     c34:	4705                	li	a4,1
     c36:	c398                	sw	a4,0(a5)
     c38:	4781                	li	a5,0
     c3a:	853e                	mv	a0,a5
     c3c:	4472                	lw	s0,28(sp)
     c3e:	6105                	addi	sp,sp,32
     c40:	8082                	ret
     c42:	0001                	nop

00000c44 <pwm_disable>:
     c44:	1101                	addi	sp,sp,-32
     c46:	ce22                	sw	s0,28(sp)
     c48:	1000                	addi	s0,sp,32
     c4a:	fea42623          	sw	a0,-20(s0)
     c4e:	fec42703          	lw	a4,-20(s0)
     c52:	4785                	li	a5,1
     c54:	00e7f463          	bgeu	a5,a4,c5c <pwm_disable+0x18>
     c58:	57fd                	li	a5,-1
     c5a:	a015                	j	c7e <pwm_disable+0x3a>
     c5c:	fec42783          	lw	a5,-20(s0)
     c60:	eb81                	bnez	a5,c70 <pwm_disable+0x2c>
     c62:	406007b7          	lui	a5,0x40600
     c66:	02078793          	addi	a5,a5,32 # 40600020 <_fstack+0x205fd024>
     c6a:	0007a023          	sw	zero,0(a5)
     c6e:	a039                	j	c7c <pwm_disable+0x38>
     c70:	407007b7          	lui	a5,0x40700
     c74:	02078793          	addi	a5,a5,32 # 40700020 <_fstack+0x206fd024>
     c78:	0007a023          	sw	zero,0(a5)
     c7c:	4781                	li	a5,0
     c7e:	853e                	mv	a0,a5
     c80:	4472                	lw	s0,28(sp)
     c82:	6105                	addi	sp,sp,32
     c84:	8082                	ret
     c86:	0001                	nop

00000c88 <tmr_enable>:
     c88:	1101                	addi	sp,sp,-32
     c8a:	ce22                	sw	s0,28(sp)
     c8c:	1000                	addi	s0,sp,32
     c8e:	fea42623          	sw	a0,-20(s0)
     c92:	fec42783          	lw	a5,-20(s0)
     c96:	e799                	bnez	a5,ca4 <tmr_enable+0x1c>
     c98:	408007b7          	lui	a5,0x40800
     c9c:	07d1                	addi	a5,a5,20
     c9e:	4705                	li	a4,1
     ca0:	c398                	sw	a4,0(a5)
     ca2:	a089                	j	ce4 <tmr_enable+0x5c>
     ca4:	fec42703          	lw	a4,-20(s0)
     ca8:	4785                	li	a5,1
     caa:	00f71863          	bne	a4,a5,cba <tmr_enable+0x32>
     cae:	409007b7          	lui	a5,0x40900
     cb2:	07d1                	addi	a5,a5,20
     cb4:	4705                	li	a4,1
     cb6:	c398                	sw	a4,0(a5)
     cb8:	a035                	j	ce4 <tmr_enable+0x5c>
     cba:	fec42703          	lw	a4,-20(s0)
     cbe:	4789                	li	a5,2
     cc0:	00f71863          	bne	a4,a5,cd0 <tmr_enable+0x48>
     cc4:	40a007b7          	lui	a5,0x40a00
     cc8:	07d1                	addi	a5,a5,20
     cca:	4705                	li	a4,1
     ccc:	c398                	sw	a4,0(a5)
     cce:	a819                	j	ce4 <tmr_enable+0x5c>
     cd0:	fec42703          	lw	a4,-20(s0)
     cd4:	478d                	li	a5,3
     cd6:	00f71763          	bne	a4,a5,ce4 <tmr_enable+0x5c>
     cda:	40b007b7          	lui	a5,0x40b00
     cde:	07d1                	addi	a5,a5,20
     ce0:	4705                	li	a4,1
     ce2:	c398                	sw	a4,0(a5)
     ce4:	4781                	li	a5,0
     ce6:	853e                	mv	a0,a5
     ce8:	4472                	lw	s0,28(sp)
     cea:	6105                	addi	sp,sp,32
     cec:	8082                	ret
     cee:	0001                	nop

00000cf0 <tmr_disable>:
     cf0:	1101                	addi	sp,sp,-32
     cf2:	ce22                	sw	s0,28(sp)
     cf4:	1000                	addi	s0,sp,32
     cf6:	fea42623          	sw	a0,-20(s0)
     cfa:	fec42783          	lw	a5,-20(s0)
     cfe:	e799                	bnez	a5,d0c <tmr_disable+0x1c>
     d00:	408007b7          	lui	a5,0x40800
     d04:	07d1                	addi	a5,a5,20
     d06:	0007a023          	sw	zero,0(a5) # 40800000 <_fstack+0x207fd004>
     d0a:	a089                	j	d4c <tmr_disable+0x5c>
     d0c:	fec42703          	lw	a4,-20(s0)
     d10:	4785                	li	a5,1
     d12:	00f71863          	bne	a4,a5,d22 <tmr_disable+0x32>
     d16:	409007b7          	lui	a5,0x40900
     d1a:	07d1                	addi	a5,a5,20
     d1c:	0007a023          	sw	zero,0(a5) # 40900000 <_fstack+0x208fd004>
     d20:	a035                	j	d4c <tmr_disable+0x5c>
     d22:	fec42703          	lw	a4,-20(s0)
     d26:	4789                	li	a5,2
     d28:	00f71863          	bne	a4,a5,d38 <tmr_disable+0x48>
     d2c:	40a007b7          	lui	a5,0x40a00
     d30:	07d1                	addi	a5,a5,20
     d32:	0007a023          	sw	zero,0(a5) # 40a00000 <_fstack+0x209fd004>
     d36:	a819                	j	d4c <tmr_disable+0x5c>
     d38:	fec42703          	lw	a4,-20(s0)
     d3c:	478d                	li	a5,3
     d3e:	00f71763          	bne	a4,a5,d4c <tmr_disable+0x5c>
     d42:	40b007b7          	lui	a5,0x40b00
     d46:	07d1                	addi	a5,a5,20
     d48:	0007a023          	sw	zero,0(a5) # 40b00000 <_fstack+0x20afd004>
     d4c:	4781                	li	a5,0
     d4e:	853e                	mv	a0,a5
     d50:	4472                	lw	s0,28(sp)
     d52:	6105                	addi	sp,sp,32
     d54:	8082                	ret
     d56:	0001                	nop

00000d58 <tmr_init>:
     d58:	1101                	addi	sp,sp,-32
     d5a:	ce22                	sw	s0,28(sp)
     d5c:	1000                	addi	s0,sp,32
     d5e:	fea42623          	sw	a0,-20(s0)
     d62:	feb42423          	sw	a1,-24(s0)
     d66:	fec42783          	lw	a5,-20(s0)
     d6a:	e799                	bnez	a5,d78 <tmr_init+0x20>
     d6c:	408007b7          	lui	a5,0x40800
     d70:	07b1                	addi	a5,a5,12
     d72:	439c                	lw	a5,0(a5)
     d74:	8b85                	andi	a5,a5,1
     d76:	a099                	j	dbc <tmr_init+0x64>
     d78:	fec42703          	lw	a4,-20(s0)
     d7c:	4785                	li	a5,1
     d7e:	00f71863          	bne	a4,a5,d8e <tmr_init+0x36>
     d82:	409007b7          	lui	a5,0x40900
     d86:	07b1                	addi	a5,a5,12
     d88:	439c                	lw	a5,0(a5)
     d8a:	8b85                	andi	a5,a5,1
     d8c:	a805                	j	dbc <tmr_init+0x64>
     d8e:	fec42703          	lw	a4,-20(s0)
     d92:	4789                	li	a5,2
     d94:	00f71863          	bne	a4,a5,da4 <tmr_init+0x4c>
     d98:	40a007b7          	lui	a5,0x40a00
     d9c:	07b1                	addi	a5,a5,12
     d9e:	439c                	lw	a5,0(a5)
     da0:	8b85                	andi	a5,a5,1
     da2:	a829                	j	dbc <tmr_init+0x64>
     da4:	fec42703          	lw	a4,-20(s0)
     da8:	478d                	li	a5,3
     daa:	00f71863          	bne	a4,a5,dba <tmr_init+0x62>
     dae:	40b007b7          	lui	a5,0x40b00
     db2:	07b1                	addi	a5,a5,12
     db4:	439c                	lw	a5,0(a5)
     db6:	8b85                	andi	a5,a5,1
     db8:	a011                	j	dbc <tmr_init+0x64>
     dba:	4781                	li	a5,0
     dbc:	853e                	mv	a0,a5
     dbe:	4472                	lw	s0,28(sp)
     dc0:	6105                	addi	sp,sp,32
     dc2:	8082                	ret

00000dc4 <set_comp>:
     dc4:	1101                	addi	sp,sp,-32
     dc6:	ce22                	sw	s0,28(sp)
     dc8:	1000                	addi	s0,sp,32
     dca:	fea42623          	sw	a0,-20(s0)
     dce:	feb42423          	sw	a1,-24(s0)
     dd2:	fec42783          	lw	a5,-20(s0)
     dd6:	eb81                	bnez	a5,de6 <set_comp+0x22>
     dd8:	408007b7          	lui	a5,0x40800
     ddc:	07a1                	addi	a5,a5,8
     dde:	fe842703          	lw	a4,-24(s0)
     de2:	c398                	sw	a4,0(a5)
     de4:	a0a1                	j	e2c <set_comp+0x68>
     de6:	fec42703          	lw	a4,-20(s0)
     dea:	4785                	li	a5,1
     dec:	00f71963          	bne	a4,a5,dfe <set_comp+0x3a>
     df0:	409007b7          	lui	a5,0x40900
     df4:	07a1                	addi	a5,a5,8
     df6:	fe842703          	lw	a4,-24(s0)
     dfa:	c398                	sw	a4,0(a5)
     dfc:	a805                	j	e2c <set_comp+0x68>
     dfe:	fec42703          	lw	a4,-20(s0)
     e02:	4789                	li	a5,2
     e04:	00f71963          	bne	a4,a5,e16 <set_comp+0x52>
     e08:	40a007b7          	lui	a5,0x40a00
     e0c:	07a1                	addi	a5,a5,8
     e0e:	fe842703          	lw	a4,-24(s0)
     e12:	c398                	sw	a4,0(a5)
     e14:	a821                	j	e2c <set_comp+0x68>
     e16:	fec42703          	lw	a4,-20(s0)
     e1a:	478d                	li	a5,3
     e1c:	00f71863          	bne	a4,a5,e2c <set_comp+0x68>
     e20:	40b007b7          	lui	a5,0x40b00
     e24:	07a1                	addi	a5,a5,8
     e26:	fe842703          	lw	a4,-24(s0)
     e2a:	c398                	sw	a4,0(a5)
     e2c:	4781                	li	a5,0
     e2e:	853e                	mv	a0,a5
     e30:	4472                	lw	s0,28(sp)
     e32:	6105                	addi	sp,sp,32
     e34:	8082                	ret
     e36:	0001                	nop

00000e38 <get_tmr>:
     e38:	1101                	addi	sp,sp,-32
     e3a:	ce22                	sw	s0,28(sp)
     e3c:	1000                	addi	s0,sp,32
     e3e:	fea42623          	sw	a0,-20(s0)
     e42:	fec42783          	lw	a5,-20(s0)
     e46:	e789                	bnez	a5,e50 <get_tmr+0x18>
     e48:	408007b7          	lui	a5,0x40800
     e4c:	439c                	lw	a5,0(a5)
     e4e:	a82d                	j	e88 <get_tmr+0x50>
     e50:	fec42703          	lw	a4,-20(s0)
     e54:	4785                	li	a5,1
     e56:	00f71663          	bne	a4,a5,e62 <get_tmr+0x2a>
     e5a:	409007b7          	lui	a5,0x40900
     e5e:	439c                	lw	a5,0(a5)
     e60:	a025                	j	e88 <get_tmr+0x50>
     e62:	fec42703          	lw	a4,-20(s0)
     e66:	4789                	li	a5,2
     e68:	00f71663          	bne	a4,a5,e74 <get_tmr+0x3c>
     e6c:	40a007b7          	lui	a5,0x40a00
     e70:	439c                	lw	a5,0(a5)
     e72:	a819                	j	e88 <get_tmr+0x50>
     e74:	fec42703          	lw	a4,-20(s0)
     e78:	478d                	li	a5,3
     e7a:	00f71663          	bne	a4,a5,e86 <get_tmr+0x4e>
     e7e:	40b007b7          	lui	a5,0x40b00
     e82:	439c                	lw	a5,0(a5)
     e84:	a011                	j	e88 <get_tmr+0x50>
     e86:	4781                	li	a5,0
     e88:	853e                	mv	a0,a5
     e8a:	4472                	lw	s0,28(sp)
     e8c:	6105                	addi	sp,sp,32
     e8e:	8082                	ret

00000e90 <get_tmr_status>:
     e90:	1101                	addi	sp,sp,-32
     e92:	ce22                	sw	s0,28(sp)
     e94:	1000                	addi	s0,sp,32
     e96:	fea42623          	sw	a0,-20(s0)
     e9a:	fec42783          	lw	a5,-20(s0)
     e9e:	e789                	bnez	a5,ea8 <get_tmr_status+0x18>
     ea0:	408007b7          	lui	a5,0x40800
     ea4:	439c                	lw	a5,0(a5)
     ea6:	a82d                	j	ee0 <get_tmr_status+0x50>
     ea8:	fec42703          	lw	a4,-20(s0)
     eac:	4785                	li	a5,1
     eae:	00f71663          	bne	a4,a5,eba <get_tmr_status+0x2a>
     eb2:	409007b7          	lui	a5,0x40900
     eb6:	439c                	lw	a5,0(a5)
     eb8:	a025                	j	ee0 <get_tmr_status+0x50>
     eba:	fec42703          	lw	a4,-20(s0)
     ebe:	4789                	li	a5,2
     ec0:	00f71663          	bne	a4,a5,ecc <get_tmr_status+0x3c>
     ec4:	40a007b7          	lui	a5,0x40a00
     ec8:	439c                	lw	a5,0(a5)
     eca:	a819                	j	ee0 <get_tmr_status+0x50>
     ecc:	fec42703          	lw	a4,-20(s0)
     ed0:	478d                	li	a5,3
     ed2:	00f71663          	bne	a4,a5,ede <get_tmr_status+0x4e>
     ed6:	40b007b7          	lui	a5,0x40b00
     eda:	439c                	lw	a5,0(a5)
     edc:	a011                	j	ee0 <get_tmr_status+0x50>
     ede:	4781                	li	a5,0
     ee0:	853e                	mv	a0,a5
     ee2:	4472                	lw	s0,28(sp)
     ee4:	6105                	addi	sp,sp,32
     ee6:	8082                	ret

00000ee8 <tmr_im>:
     ee8:	1101                	addi	sp,sp,-32
     eea:	ce22                	sw	s0,28(sp)
     eec:	1000                	addi	s0,sp,32
     eee:	fea42623          	sw	a0,-20(s0)
     ef2:	feb42423          	sw	a1,-24(s0)
     ef6:	fec42783          	lw	a5,-20(s0)
     efa:	eb89                	bnez	a5,f0c <tmr_im+0x24>
     efc:	408007b7          	lui	a5,0x40800
     f00:	10078793          	addi	a5,a5,256 # 40800100 <_fstack+0x207fd104>
     f04:	fe842703          	lw	a4,-24(s0)
     f08:	c398                	sw	a4,0(a5)
     f0a:	a0b9                	j	f58 <tmr_im+0x70>
     f0c:	fec42703          	lw	a4,-20(s0)
     f10:	4785                	li	a5,1
     f12:	00f71a63          	bne	a4,a5,f26 <tmr_im+0x3e>
     f16:	409007b7          	lui	a5,0x40900
     f1a:	10078793          	addi	a5,a5,256 # 40900100 <_fstack+0x208fd104>
     f1e:	fe842703          	lw	a4,-24(s0)
     f22:	c398                	sw	a4,0(a5)
     f24:	a815                	j	f58 <tmr_im+0x70>
     f26:	fec42703          	lw	a4,-20(s0)
     f2a:	4789                	li	a5,2
     f2c:	00f71a63          	bne	a4,a5,f40 <tmr_im+0x58>
     f30:	40a007b7          	lui	a5,0x40a00
     f34:	10078793          	addi	a5,a5,256 # 40a00100 <_fstack+0x209fd104>
     f38:	fe842703          	lw	a4,-24(s0)
     f3c:	c398                	sw	a4,0(a5)
     f3e:	a829                	j	f58 <tmr_im+0x70>
     f40:	fec42703          	lw	a4,-20(s0)
     f44:	478d                	li	a5,3
     f46:	00f71963          	bne	a4,a5,f58 <tmr_im+0x70>
     f4a:	40b007b7          	lui	a5,0x40b00
     f4e:	10078793          	addi	a5,a5,256 # 40b00100 <_fstack+0x20afd104>
     f52:	fe842703          	lw	a4,-24(s0)
     f56:	c398                	sw	a4,0(a5)
     f58:	4781                	li	a5,0
     f5a:	853e                	mv	a0,a5
     f5c:	4472                	lw	s0,28(sp)
     f5e:	6105                	addi	sp,sp,32
     f60:	8082                	ret
     f62:	0001                	nop

00000f64 <wdt_enable>:
     f64:	1101                	addi	sp,sp,-32
     f66:	ce22                	sw	s0,28(sp)
     f68:	1000                	addi	s0,sp,32
     f6a:	fea42623          	sw	a0,-20(s0)
     f6e:	fec42703          	lw	a4,-20(s0)
     f72:	4785                	li	a5,1
     f74:	00e7f463          	bgeu	a5,a4,f7c <wdt_enable+0x18>
     f78:	57fd                	li	a5,-1
     f7a:	a005                	j	f9a <wdt_enable+0x36>
     f7c:	fec42783          	lw	a5,-20(s0)
     f80:	e799                	bnez	a5,f8e <wdt_enable+0x2a>
     f82:	40c007b7          	lui	a5,0x40c00
     f86:	07d1                	addi	a5,a5,20
     f88:	4705                	li	a4,1
     f8a:	c398                	sw	a4,0(a5)
     f8c:	a031                	j	f98 <wdt_enable+0x34>
     f8e:	40d007b7          	lui	a5,0x40d00
     f92:	07d1                	addi	a5,a5,20
     f94:	4705                	li	a4,1
     f96:	c398                	sw	a4,0(a5)
     f98:	4781                	li	a5,0
     f9a:	853e                	mv	a0,a5
     f9c:	4472                	lw	s0,28(sp)
     f9e:	6105                	addi	sp,sp,32
     fa0:	8082                	ret
     fa2:	0001                	nop

00000fa4 <wdt_disable>:
     fa4:	1101                	addi	sp,sp,-32
     fa6:	ce22                	sw	s0,28(sp)
     fa8:	1000                	addi	s0,sp,32
     faa:	fea42623          	sw	a0,-20(s0)
     fae:	fec42703          	lw	a4,-20(s0)
     fb2:	4785                	li	a5,1
     fb4:	00e7f463          	bgeu	a5,a4,fbc <wdt_disable+0x18>
     fb8:	57fd                	li	a5,-1
     fba:	a005                	j	fda <wdt_disable+0x36>
     fbc:	fec42783          	lw	a5,-20(s0)
     fc0:	e799                	bnez	a5,fce <wdt_disable+0x2a>
     fc2:	40c007b7          	lui	a5,0x40c00
     fc6:	07d1                	addi	a5,a5,20
     fc8:	0007a023          	sw	zero,0(a5) # 40c00000 <_fstack+0x20bfd004>
     fcc:	a031                	j	fd8 <wdt_disable+0x34>
     fce:	40d007b7          	lui	a5,0x40d00
     fd2:	07d1                	addi	a5,a5,20
     fd4:	0007a023          	sw	zero,0(a5) # 40d00000 <_fstack+0x20cfd004>
     fd8:	4781                	li	a5,0
     fda:	853e                	mv	a0,a5
     fdc:	4472                	lw	s0,28(sp)
     fde:	6105                	addi	sp,sp,32
     fe0:	8082                	ret
     fe2:	0001                	nop

00000fe4 <wdt_load>:
     fe4:	1101                	addi	sp,sp,-32
     fe6:	ce22                	sw	s0,28(sp)
     fe8:	1000                	addi	s0,sp,32
     fea:	fea42623          	sw	a0,-20(s0)
     fee:	feb42423          	sw	a1,-24(s0)
     ff2:	fec42703          	lw	a4,-20(s0)
     ff6:	4785                	li	a5,1
     ff8:	00e7f463          	bgeu	a5,a4,1000 <wdt_load+0x1c>
     ffc:	57fd                	li	a5,-1
     ffe:	a015                	j	1022 <wdt_load+0x3e>
    1000:	fec42783          	lw	a5,-20(s0)
    1004:	eb81                	bnez	a5,1014 <wdt_load+0x30>
    1006:	40c007b7          	lui	a5,0x40c00
    100a:	0791                	addi	a5,a5,4
    100c:	fe842703          	lw	a4,-24(s0)
    1010:	c398                	sw	a4,0(a5)
    1012:	a039                	j	1020 <wdt_load+0x3c>
    1014:	40c007b7          	lui	a5,0x40c00
    1018:	0791                	addi	a5,a5,4
    101a:	fe842703          	lw	a4,-24(s0)
    101e:	c398                	sw	a4,0(a5)
    1020:	4781                	li	a5,0
    1022:	853e                	mv	a0,a5
    1024:	4472                	lw	s0,28(sp)
    1026:	6105                	addi	sp,sp,32
    1028:	8082                	ret
    102a:	0001                	nop

0000102c <wdt_irqen>:
    102c:	1101                	addi	sp,sp,-32
    102e:	ce22                	sw	s0,28(sp)
    1030:	1000                	addi	s0,sp,32
    1032:	fea42623          	sw	a0,-20(s0)
    1036:	feb42423          	sw	a1,-24(s0)
    103a:	fec42703          	lw	a4,-20(s0)
    103e:	4785                	li	a5,1
    1040:	00e7f463          	bgeu	a5,a4,1048 <wdt_irqen+0x1c>
    1044:	57fd                	li	a5,-1
    1046:	a025                	j	106e <wdt_irqen+0x42>
    1048:	fec42783          	lw	a5,-20(s0)
    104c:	eb89                	bnez	a5,105e <wdt_irqen+0x32>
    104e:	40c007b7          	lui	a5,0x40c00
    1052:	10078793          	addi	a5,a5,256 # 40c00100 <_fstack+0x20bfd104>
    1056:	fe842703          	lw	a4,-24(s0)
    105a:	c398                	sw	a4,0(a5)
    105c:	a801                	j	106c <wdt_irqen+0x40>
    105e:	40d007b7          	lui	a5,0x40d00
    1062:	10078793          	addi	a5,a5,256 # 40d00100 <_fstack+0x20cfd104>
    1066:	fe842703          	lw	a4,-24(s0)
    106a:	c398                	sw	a4,0(a5)
    106c:	4781                	li	a5,0
    106e:	853e                	mv	a0,a5
    1070:	4472                	lw	s0,28(sp)
    1072:	6105                	addi	sp,sp,32
    1074:	8082                	ret
    1076:	0001                	nop

00001078 <get_wdtmr>:
    1078:	1101                	addi	sp,sp,-32
    107a:	ce22                	sw	s0,28(sp)
    107c:	1000                	addi	s0,sp,32
    107e:	fea42623          	sw	a0,-20(s0)
    1082:	fec42703          	lw	a4,-20(s0)
    1086:	4785                	li	a5,1
    1088:	00e7f463          	bgeu	a5,a4,1090 <get_wdtmr+0x18>
    108c:	57fd                	li	a5,-1
    108e:	a819                	j	10a4 <get_wdtmr+0x2c>
    1090:	fec42783          	lw	a5,-20(s0)
    1094:	e789                	bnez	a5,109e <get_wdtmr+0x26>
    1096:	40c007b7          	lui	a5,0x40c00
    109a:	439c                	lw	a5,0(a5)
    109c:	a021                	j	10a4 <get_wdtmr+0x2c>
    109e:	40d007b7          	lui	a5,0x40d00
    10a2:	439c                	lw	a5,0(a5)
    10a4:	853e                	mv	a0,a5
    10a6:	4472                	lw	s0,28(sp)
    10a8:	6105                	addi	sp,sp,32
    10aa:	8082                	ret

000010ac <get_wdov>:
    10ac:	1101                	addi	sp,sp,-32
    10ae:	ce22                	sw	s0,28(sp)
    10b0:	1000                	addi	s0,sp,32
    10b2:	fea42623          	sw	a0,-20(s0)
    10b6:	fec42703          	lw	a4,-20(s0)
    10ba:	4785                	li	a5,1
    10bc:	00e7f463          	bgeu	a5,a4,10c4 <get_wdov+0x18>
    10c0:	57fd                	li	a5,-1
    10c2:	a829                	j	10dc <get_wdov+0x30>
    10c4:	fec42783          	lw	a5,-20(s0)
    10c8:	e791                	bnez	a5,10d4 <get_wdov+0x28>
    10ca:	40c007b7          	lui	a5,0x40c00
    10ce:	07b1                	addi	a5,a5,12
    10d0:	439c                	lw	a5,0(a5)
    10d2:	a029                	j	10dc <get_wdov+0x30>
    10d4:	40d007b7          	lui	a5,0x40d00
    10d8:	07b1                	addi	a5,a5,12
    10da:	439c                	lw	a5,0(a5)
    10dc:	853e                	mv	a0,a5
    10de:	4472                	lw	s0,28(sp)
    10e0:	6105                	addi	sp,sp,32
    10e2:	8082                	ret

000010e4 <ML_ACC>:
    10e4:	7179                	addi	sp,sp,-48
    10e6:	d622                	sw	s0,44(sp)
    10e8:	1800                	addi	s0,sp,48
    10ea:	fea42623          	sw	a0,-20(s0)
    10ee:	feb42423          	sw	a1,-24(s0)
    10f2:	fec42223          	sw	a2,-28(s0)
    10f6:	fed42023          	sw	a3,-32(s0)
    10fa:	fce42e23          	sw	a4,-36(s0)
    10fe:	fcf42c23          	sw	a5,-40(s0)
    1102:	fd042a23          	sw	a6,-44(s0)
    1106:	fd142823          	sw	a7,-48(s0)
    110a:	4a0007b7          	lui	a5,0x4a000
    110e:	03878793          	addi	a5,a5,56 # 4a000038 <_fstack+0x29ffd03c>
    1112:	fec42703          	lw	a4,-20(s0)
    1116:	c398                	sw	a4,0(a5)
    1118:	4a0007b7          	lui	a5,0x4a000
    111c:	0791                	addi	a5,a5,4
    111e:	fe842703          	lw	a4,-24(s0)
    1122:	c398                	sw	a4,0(a5)
    1124:	4a0007b7          	lui	a5,0x4a000
    1128:	07a1                	addi	a5,a5,8
    112a:	fe442703          	lw	a4,-28(s0)
    112e:	c398                	sw	a4,0(a5)
    1130:	4a0007b7          	lui	a5,0x4a000
    1134:	07b1                	addi	a5,a5,12
    1136:	fe042703          	lw	a4,-32(s0)
    113a:	c398                	sw	a4,0(a5)
    113c:	4a0007b7          	lui	a5,0x4a000
    1140:	07c1                	addi	a5,a5,16
    1142:	fdc42703          	lw	a4,-36(s0)
    1146:	c398                	sw	a4,0(a5)
    1148:	4a0007b7          	lui	a5,0x4a000
    114c:	07d1                	addi	a5,a5,20
    114e:	fd842703          	lw	a4,-40(s0)
    1152:	c398                	sw	a4,0(a5)
    1154:	4a0007b7          	lui	a5,0x4a000
    1158:	07e1                	addi	a5,a5,24
    115a:	fd442703          	lw	a4,-44(s0)
    115e:	c398                	sw	a4,0(a5)
    1160:	4a0007b7          	lui	a5,0x4a000
    1164:	07f1                	addi	a5,a5,28
    1166:	fd042703          	lw	a4,-48(s0)
    116a:	c398                	sw	a4,0(a5)
    116c:	4a0007b7          	lui	a5,0x4a000
    1170:	02078793          	addi	a5,a5,32 # 4a000020 <_fstack+0x29ffd024>
    1174:	4018                	lw	a4,0(s0)
    1176:	c398                	sw	a4,0(a5)
    1178:	4a0007b7          	lui	a5,0x4a000
    117c:	02478793          	addi	a5,a5,36 # 4a000024 <_fstack+0x29ffd028>
    1180:	4058                	lw	a4,4(s0)
    1182:	c398                	sw	a4,0(a5)
    1184:	0001                	nop
    1186:	5432                	lw	s0,44(sp)
    1188:	6145                	addi	sp,sp,48
    118a:	8082                	ret

0000118c <read_out0>:
    118c:	1141                	addi	sp,sp,-16
    118e:	c622                	sw	s0,12(sp)
    1190:	0800                	addi	s0,sp,16
    1192:	4a0007b7          	lui	a5,0x4a000
    1196:	02878793          	addi	a5,a5,40 # 4a000028 <_fstack+0x29ffd02c>
    119a:	439c                	lw	a5,0(a5)
    119c:	853e                	mv	a0,a5
    119e:	4432                	lw	s0,12(sp)
    11a0:	0141                	addi	sp,sp,16
    11a2:	8082                	ret

000011a4 <read_out1>:
    11a4:	1141                	addi	sp,sp,-16
    11a6:	c622                	sw	s0,12(sp)
    11a8:	0800                	addi	s0,sp,16
    11aa:	4a0007b7          	lui	a5,0x4a000
    11ae:	02c78793          	addi	a5,a5,44 # 4a00002c <_fstack+0x29ffd030>
    11b2:	439c                	lw	a5,0(a5)
    11b4:	853e                	mv	a0,a5
    11b6:	4432                	lw	s0,12(sp)
    11b8:	0141                	addi	sp,sp,16
    11ba:	8082                	ret

000011bc <read_out2>:
    11bc:	1141                	addi	sp,sp,-16
    11be:	c622                	sw	s0,12(sp)
    11c0:	0800                	addi	s0,sp,16
    11c2:	4a0007b7          	lui	a5,0x4a000
    11c6:	03078793          	addi	a5,a5,48 # 4a000030 <_fstack+0x29ffd034>
    11ca:	439c                	lw	a5,0(a5)
    11cc:	853e                	mv	a0,a5
    11ce:	4432                	lw	s0,12(sp)
    11d0:	0141                	addi	sp,sp,16
    11d2:	8082                	ret

000011d4 <read_out3>:
    11d4:	1141                	addi	sp,sp,-16
    11d6:	c622                	sw	s0,12(sp)
    11d8:	0800                	addi	s0,sp,16
    11da:	4a0007b7          	lui	a5,0x4a000
    11de:	03478793          	addi	a5,a5,52 # 4a000034 <_fstack+0x29ffd038>
    11e2:	439c                	lw	a5,0(a5)
    11e4:	853e                	mv	a0,a5
    11e6:	4432                	lw	s0,12(sp)
    11e8:	0141                	addi	sp,sp,16
    11ea:	8082                	ret

000011ec <SEC_ACC>:
    11ec:	1101                	addi	sp,sp,-32
    11ee:	ce22                	sw	s0,28(sp)
    11f0:	1000                	addi	s0,sp,32
    11f2:	fea42623          	sw	a0,-20(s0)
    11f6:	feb42423          	sw	a1,-24(s0)
    11fa:	fec42223          	sw	a2,-28(s0)
    11fe:	4b0007b7          	lui	a5,0x4b000
    1202:	fec42703          	lw	a4,-20(s0)
    1206:	c398                	sw	a4,0(a5)
    1208:	4b0007b7          	lui	a5,0x4b000
    120c:	0791                	addi	a5,a5,4
    120e:	fe842703          	lw	a4,-24(s0)
    1212:	c398                	sw	a4,0(a5)
    1214:	4b0007b7          	lui	a5,0x4b000
    1218:	07a1                	addi	a5,a5,8
    121a:	fe442703          	lw	a4,-28(s0)
    121e:	c398                	sw	a4,0(a5)
    1220:	0001                	nop
    1222:	4472                	lw	s0,28(sp)
    1224:	6105                	addi	sp,sp,32
    1226:	8082                	ret

00001228 <Tanh>:
    1228:	1101                	addi	sp,sp,-32
    122a:	ce22                	sw	s0,28(sp)
    122c:	1000                	addi	s0,sp,32
    122e:	fea42623          	sw	a0,-20(s0)
    1232:	4d0007b7          	lui	a5,0x4d000
    1236:	fec42703          	lw	a4,-20(s0)
    123a:	c398                	sw	a4,0(a5)
    123c:	4d0007b7          	lui	a5,0x4d000
    1240:	0791                	addi	a5,a5,4
    1242:	439c                	lw	a5,0(a5)
    1244:	853e                	mv	a0,a5
    1246:	4472                	lw	s0,28(sp)
    1248:	6105                	addi	sp,sp,32
    124a:	8082                	ret

0000124c <Sigmoid>:
    124c:	1101                	addi	sp,sp,-32
    124e:	ce22                	sw	s0,28(sp)
    1250:	1000                	addi	s0,sp,32
    1252:	fea42623          	sw	a0,-20(s0)
    1256:	4e0007b7          	lui	a5,0x4e000
    125a:	fec42703          	lw	a4,-20(s0)
    125e:	c398                	sw	a4,0(a5)
    1260:	0001                	nop
    1262:	4472                	lw	s0,28(sp)
    1264:	6105                	addi	sp,sp,32
    1266:	8082                	ret

00001268 <read_Sigmoid>:
    1268:	1141                	addi	sp,sp,-16
    126a:	c622                	sw	s0,12(sp)
    126c:	0800                	addi	s0,sp,16
    126e:	4e0007b7          	lui	a5,0x4e000
    1272:	0791                	addi	a5,a5,4
    1274:	439c                	lw	a5,0(a5)
    1276:	853e                	mv	a0,a5
    1278:	4432                	lw	s0,12(sp)
    127a:	0141                	addi	sp,sp,16
    127c:	8082                	ret
    127e:	0001                	nop

00001280 <read_SEC>:
    1280:	1141                	addi	sp,sp,-16
    1282:	c622                	sw	s0,12(sp)
    1284:	0800                	addi	s0,sp,16
    1286:	4b0007b7          	lui	a5,0x4b000
    128a:	07c1                	addi	a5,a5,16
    128c:	439c                	lw	a5,0(a5)
    128e:	853e                	mv	a0,a5
    1290:	4432                	lw	s0,12(sp)
    1292:	0141                	addi	sp,sp,16
    1294:	8082                	ret
	...

00001298 <local_convolve_HWC_q7_nonsquare>:
    1298:	7145                	addi	sp,sp,-464
    129a:	1c112623          	sw	ra,460(sp)
    129e:	1c812423          	sw	s0,456(sp)
    12a2:	1c912223          	sw	s1,452(sp)
    12a6:	0b80                	addi	s0,sp,464
    12a8:	e4a42e23          	sw	a0,-420(s0)
    12ac:	832e                	mv	t1,a1
    12ae:	8532                	mv	a0,a2
    12b0:	85b6                	mv	a1,a3
    12b2:	e4e42823          	sw	a4,-432(s0)
    12b6:	863e                	mv	a2,a5
    12b8:	86c2                	mv	a3,a6
    12ba:	8746                	mv	a4,a7
    12bc:	879a                	mv	a5,t1
    12be:	e4f41d23          	sh	a5,-422(s0)
    12c2:	87aa                	mv	a5,a0
    12c4:	e4f41c23          	sh	a5,-424(s0)
    12c8:	87ae                	mv	a5,a1
    12ca:	e4f41b23          	sh	a5,-426(s0)
    12ce:	87b2                	mv	a5,a2
    12d0:	e4f41a23          	sh	a5,-428(s0)
    12d4:	87b6                	mv	a5,a3
    12d6:	e4f41723          	sh	a5,-434(s0)
    12da:	87ba                	mv	a5,a4
    12dc:	e4f41623          	sh	a5,-436(s0)
    12e0:	e5a45783          	lhu	a5,-422(s0)
    12e4:	e5845703          	lhu	a4,-424(s0)
    12e8:	85ba                	mv	a1,a4
    12ea:	853e                	mv	a0,a5
    12ec:	4ad010ef          	jal	ra,2f98 <__mulsi3>
    12f0:	87aa                	mv	a5,a0
    12f2:	873e                	mv	a4,a5
    12f4:	e5645783          	lhu	a5,-426(s0)
    12f8:	85be                	mv	a1,a5
    12fa:	853a                	mv	a0,a4
    12fc:	49d010ef          	jal	ra,2f98 <__mulsi3>
    1300:	87aa                	mv	a5,a0
    1302:	873e                	mv	a4,a5
    1304:	e5c42783          	lw	a5,-420(s0)
    1308:	97ba                	add	a5,a5,a4
    130a:	0007a023          	sw	zero,0(a5) # 4b000000 <_fstack+0x2affd004>
    130e:	f8042e23          	sw	zero,-100(s0)
    1312:	fe042623          	sw	zero,-20(s0)
    1316:	7440006f          	j	1a5a <local_convolve_HWC_q7_nonsquare+0x7c2>
    131a:	fe042423          	sw	zero,-24(s0)
    131e:	7260006f          	j	1a44 <local_convolve_HWC_q7_nonsquare+0x7ac>
    1322:	00c45783          	lhu	a5,12(s0)
    1326:	fe842583          	lw	a1,-24(s0)
    132a:	853e                	mv	a0,a5
    132c:	46d010ef          	jal	ra,2f98 <__mulsi3>
    1330:	87aa                	mv	a5,a0
    1332:	873e                	mv	a4,a5
    1334:	00445783          	lhu	a5,4(s0)
    1338:	40f707b3          	sub	a5,a4,a5
    133c:	f8f42c23          	sw	a5,-104(s0)
    1340:	fe042223          	sw	zero,-28(s0)
    1344:	a5ed                	j	1a2e <local_convolve_HWC_q7_nonsquare+0x796>
    1346:	00845783          	lhu	a5,8(s0)
    134a:	fe442583          	lw	a1,-28(s0)
    134e:	853e                	mv	a0,a5
    1350:	449010ef          	jal	ra,2f98 <__mulsi3>
    1354:	87aa                	mv	a5,a0
    1356:	873e                	mv	a4,a5
    1358:	00045783          	lhu	a5,0(s0)
    135c:	40f707b3          	sub	a5,a4,a5
    1360:	f8f42a23          	sw	a5,-108(s0)
    1364:	01445783          	lhu	a5,20(s0)
    1368:	fff78713          	addi	a4,a5,-1
    136c:	f9842783          	lw	a5,-104(s0)
    1370:	40f707b3          	sub	a5,a4,a5
    1374:	01445703          	lhu	a4,20(s0)
    1378:	85ba                	mv	a1,a4
    137a:	853e                	mv	a0,a5
    137c:	441010ef          	jal	ra,2fbc <__divsi3>
    1380:	87aa                	mv	a5,a0
    1382:	0007d363          	bgez	a5,1388 <local_convolve_HWC_q7_nonsquare+0xf0>
    1386:	4781                	li	a5,0
    1388:	f8f42823          	sw	a5,-112(s0)
    138c:	01045783          	lhu	a5,16(s0)
    1390:	fff78713          	addi	a4,a5,-1
    1394:	f9442783          	lw	a5,-108(s0)
    1398:	40f707b3          	sub	a5,a4,a5
    139c:	01045703          	lhu	a4,16(s0)
    13a0:	85ba                	mv	a1,a4
    13a2:	853e                	mv	a0,a5
    13a4:	419010ef          	jal	ra,2fbc <__divsi3>
    13a8:	87aa                	mv	a5,a0
    13aa:	0007d363          	bgez	a5,13b0 <local_convolve_HWC_q7_nonsquare+0x118>
    13ae:	4781                	li	a5,0
    13b0:	f8f42623          	sw	a5,-116(s0)
    13b4:	e5845703          	lhu	a4,-424(s0)
    13b8:	f9842783          	lw	a5,-104(s0)
    13bc:	8f1d                	sub	a4,a4,a5
    13be:	01445783          	lhu	a5,20(s0)
    13c2:	17fd                	addi	a5,a5,-1
    13c4:	97ba                	add	a5,a5,a4
    13c6:	01445703          	lhu	a4,20(s0)
    13ca:	85ba                	mv	a1,a4
    13cc:	853e                	mv	a0,a5
    13ce:	3ef010ef          	jal	ra,2fbc <__divsi3>
    13d2:	87aa                	mv	a5,a0
    13d4:	e4c45703          	lhu	a4,-436(s0)
    13d8:	00f75363          	bge	a4,a5,13de <local_convolve_HWC_q7_nonsquare+0x146>
    13dc:	87ba                	mv	a5,a4
    13de:	f8f42423          	sw	a5,-120(s0)
    13e2:	e5a45703          	lhu	a4,-422(s0)
    13e6:	f9442783          	lw	a5,-108(s0)
    13ea:	8f1d                	sub	a4,a4,a5
    13ec:	01045783          	lhu	a5,16(s0)
    13f0:	17fd                	addi	a5,a5,-1
    13f2:	97ba                	add	a5,a5,a4
    13f4:	01045703          	lhu	a4,16(s0)
    13f8:	85ba                	mv	a1,a4
    13fa:	853e                	mv	a0,a5
    13fc:	3c1010ef          	jal	ra,2fbc <__divsi3>
    1400:	87aa                	mv	a5,a0
    1402:	e4e45703          	lhu	a4,-434(s0)
    1406:	00f75363          	bge	a4,a5,140c <local_convolve_HWC_q7_nonsquare+0x174>
    140a:	87ba                	mv	a5,a4
    140c:	f8f42223          	sw	a5,-124(s0)
    1410:	fec42783          	lw	a5,-20(s0)
    1414:	078a                	slli	a5,a5,0x2
    1416:	873e                	mv	a4,a5
    1418:	4c1c                	lw	a5,24(s0)
    141a:	97ba                	add	a5,a5,a4
    141c:	00078783          	lb	a5,0(a5)
    1420:	fcf42e23          	sw	a5,-36(s0)
    1424:	fec42783          	lw	a5,-20(s0)
    1428:	078a                	slli	a5,a5,0x2
    142a:	0785                	addi	a5,a5,1
    142c:	4c18                	lw	a4,24(s0)
    142e:	97ba                	add	a5,a5,a4
    1430:	00078783          	lb	a5,0(a5)
    1434:	fcf42c23          	sw	a5,-40(s0)
    1438:	fec42783          	lw	a5,-20(s0)
    143c:	078a                	slli	a5,a5,0x2
    143e:	0789                	addi	a5,a5,2
    1440:	4c18                	lw	a4,24(s0)
    1442:	97ba                	add	a5,a5,a4
    1444:	00078783          	lb	a5,0(a5)
    1448:	fcf42a23          	sw	a5,-44(s0)
    144c:	fec42783          	lw	a5,-20(s0)
    1450:	078a                	slli	a5,a5,0x2
    1452:	078d                	addi	a5,a5,3
    1454:	4c18                	lw	a4,24(s0)
    1456:	97ba                	add	a5,a5,a4
    1458:	00078783          	lb	a5,0(a5)
    145c:	fcf42823          	sw	a5,-48(s0)
    1460:	f9042783          	lw	a5,-112(s0)
    1464:	fef42023          	sw	a5,-32(s0)
    1468:	a14d                	j	190a <local_convolve_HWC_q7_nonsquare+0x672>
    146a:	00c45783          	lhu	a5,12(s0)
    146e:	fe842583          	lw	a1,-24(s0)
    1472:	853e                	mv	a0,a5
    1474:	325010ef          	jal	ra,2f98 <__mulsi3>
    1478:	87aa                	mv	a5,a0
    147a:	84be                	mv	s1,a5
    147c:	01445783          	lhu	a5,20(s0)
    1480:	fe042583          	lw	a1,-32(s0)
    1484:	853e                	mv	a0,a5
    1486:	313010ef          	jal	ra,2f98 <__mulsi3>
    148a:	87aa                	mv	a5,a0
    148c:	00f48733          	add	a4,s1,a5
    1490:	00445783          	lhu	a5,4(s0)
    1494:	40f707b3          	sub	a5,a4,a5
    1498:	f8f42023          	sw	a5,-128(s0)
    149c:	00845783          	lhu	a5,8(s0)
    14a0:	fe442583          	lw	a1,-28(s0)
    14a4:	853e                	mv	a0,a5
    14a6:	2f3010ef          	jal	ra,2f98 <__mulsi3>
    14aa:	87aa                	mv	a5,a0
    14ac:	873e                	mv	a4,a5
    14ae:	f8c42783          	lw	a5,-116(s0)
    14b2:	973e                	add	a4,a4,a5
    14b4:	00045783          	lhu	a5,0(s0)
    14b8:	40f707b3          	sub	a5,a4,a5
    14bc:	f6f42e23          	sw	a5,-132(s0)
    14c0:	f8442703          	lw	a4,-124(s0)
    14c4:	f8c42783          	lw	a5,-116(s0)
    14c8:	40f707b3          	sub	a5,a4,a5
    14cc:	e5645703          	lhu	a4,-426(s0)
    14d0:	85ba                	mv	a1,a4
    14d2:	853e                	mv	a0,a5
    14d4:	2c5010ef          	jal	ra,2f98 <__mulsi3>
    14d8:	87aa                	mv	a5,a0
    14da:	f6f42c23          	sw	a5,-136(s0)
    14de:	e5a45783          	lhu	a5,-422(s0)
    14e2:	f8042583          	lw	a1,-128(s0)
    14e6:	853e                	mv	a0,a5
    14e8:	2b1010ef          	jal	ra,2f98 <__mulsi3>
    14ec:	87aa                	mv	a5,a0
    14ee:	873e                	mv	a4,a5
    14f0:	f7c42783          	lw	a5,-132(s0)
    14f4:	97ba                	add	a5,a5,a4
    14f6:	e5645703          	lhu	a4,-426(s0)
    14fa:	85ba                	mv	a1,a4
    14fc:	853e                	mv	a0,a5
    14fe:	29b010ef          	jal	ra,2f98 <__mulsi3>
    1502:	87aa                	mv	a5,a0
    1504:	fcf42623          	sw	a5,-52(s0)
    1508:	e5645783          	lhu	a5,-426(s0)
    150c:	fec42583          	lw	a1,-20(s0)
    1510:	853e                	mv	a0,a5
    1512:	287010ef          	jal	ra,2f98 <__mulsi3>
    1516:	87aa                	mv	a5,a0
    1518:	873e                	mv	a4,a5
    151a:	e4c45783          	lhu	a5,-436(s0)
    151e:	85be                	mv	a1,a5
    1520:	853a                	mv	a0,a4
    1522:	277010ef          	jal	ra,2f98 <__mulsi3>
    1526:	87aa                	mv	a5,a0
    1528:	873e                	mv	a4,a5
    152a:	e4e45783          	lhu	a5,-434(s0)
    152e:	85be                	mv	a1,a5
    1530:	853a                	mv	a0,a4
    1532:	267010ef          	jal	ra,2f98 <__mulsi3>
    1536:	87aa                	mv	a5,a0
    1538:	00279493          	slli	s1,a5,0x2
    153c:	e4e45783          	lhu	a5,-434(s0)
    1540:	fe042583          	lw	a1,-32(s0)
    1544:	853e                	mv	a0,a5
    1546:	253010ef          	jal	ra,2f98 <__mulsi3>
    154a:	87aa                	mv	a5,a0
    154c:	873e                	mv	a4,a5
    154e:	f8c42783          	lw	a5,-116(s0)
    1552:	97ba                	add	a5,a5,a4
    1554:	e5645703          	lhu	a4,-426(s0)
    1558:	85ba                	mv	a1,a4
    155a:	853e                	mv	a0,a5
    155c:	23d010ef          	jal	ra,2f98 <__mulsi3>
    1560:	87aa                	mv	a5,a0
    1562:	97a6                	add	a5,a5,s1
    1564:	fcf42423          	sw	a5,-56(s0)
    1568:	fec42783          	lw	a5,-20(s0)
    156c:	078a                	slli	a5,a5,0x2
    156e:	0785                	addi	a5,a5,1
    1570:	e5645703          	lhu	a4,-426(s0)
    1574:	85ba                	mv	a1,a4
    1576:	853e                	mv	a0,a5
    1578:	221010ef          	jal	ra,2f98 <__mulsi3>
    157c:	87aa                	mv	a5,a0
    157e:	873e                	mv	a4,a5
    1580:	e4c45783          	lhu	a5,-436(s0)
    1584:	85be                	mv	a1,a5
    1586:	853a                	mv	a0,a4
    1588:	211010ef          	jal	ra,2f98 <__mulsi3>
    158c:	87aa                	mv	a5,a0
    158e:	873e                	mv	a4,a5
    1590:	e4e45783          	lhu	a5,-434(s0)
    1594:	85be                	mv	a1,a5
    1596:	853a                	mv	a0,a4
    1598:	201010ef          	jal	ra,2f98 <__mulsi3>
    159c:	87aa                	mv	a5,a0
    159e:	84be                	mv	s1,a5
    15a0:	e4e45783          	lhu	a5,-434(s0)
    15a4:	fe042583          	lw	a1,-32(s0)
    15a8:	853e                	mv	a0,a5
    15aa:	1ef010ef          	jal	ra,2f98 <__mulsi3>
    15ae:	87aa                	mv	a5,a0
    15b0:	873e                	mv	a4,a5
    15b2:	f8c42783          	lw	a5,-116(s0)
    15b6:	97ba                	add	a5,a5,a4
    15b8:	e5645703          	lhu	a4,-426(s0)
    15bc:	85ba                	mv	a1,a4
    15be:	853e                	mv	a0,a5
    15c0:	1d9010ef          	jal	ra,2f98 <__mulsi3>
    15c4:	87aa                	mv	a5,a0
    15c6:	97a6                	add	a5,a5,s1
    15c8:	fcf42223          	sw	a5,-60(s0)
    15cc:	fec42783          	lw	a5,-20(s0)
    15d0:	078a                	slli	a5,a5,0x2
    15d2:	0789                	addi	a5,a5,2
    15d4:	e5645703          	lhu	a4,-426(s0)
    15d8:	85ba                	mv	a1,a4
    15da:	853e                	mv	a0,a5
    15dc:	1bd010ef          	jal	ra,2f98 <__mulsi3>
    15e0:	87aa                	mv	a5,a0
    15e2:	873e                	mv	a4,a5
    15e4:	e4c45783          	lhu	a5,-436(s0)
    15e8:	85be                	mv	a1,a5
    15ea:	853a                	mv	a0,a4
    15ec:	1ad010ef          	jal	ra,2f98 <__mulsi3>
    15f0:	87aa                	mv	a5,a0
    15f2:	873e                	mv	a4,a5
    15f4:	e4e45783          	lhu	a5,-434(s0)
    15f8:	85be                	mv	a1,a5
    15fa:	853a                	mv	a0,a4
    15fc:	19d010ef          	jal	ra,2f98 <__mulsi3>
    1600:	87aa                	mv	a5,a0
    1602:	84be                	mv	s1,a5
    1604:	e4e45783          	lhu	a5,-434(s0)
    1608:	fe042583          	lw	a1,-32(s0)
    160c:	853e                	mv	a0,a5
    160e:	18b010ef          	jal	ra,2f98 <__mulsi3>
    1612:	87aa                	mv	a5,a0
    1614:	873e                	mv	a4,a5
    1616:	f8c42783          	lw	a5,-116(s0)
    161a:	97ba                	add	a5,a5,a4
    161c:	e5645703          	lhu	a4,-426(s0)
    1620:	85ba                	mv	a1,a4
    1622:	853e                	mv	a0,a5
    1624:	175010ef          	jal	ra,2f98 <__mulsi3>
    1628:	87aa                	mv	a5,a0
    162a:	97a6                	add	a5,a5,s1
    162c:	fcf42023          	sw	a5,-64(s0)
    1630:	fec42783          	lw	a5,-20(s0)
    1634:	078a                	slli	a5,a5,0x2
    1636:	078d                	addi	a5,a5,3
    1638:	e5645703          	lhu	a4,-426(s0)
    163c:	85ba                	mv	a1,a4
    163e:	853e                	mv	a0,a5
    1640:	159010ef          	jal	ra,2f98 <__mulsi3>
    1644:	87aa                	mv	a5,a0
    1646:	873e                	mv	a4,a5
    1648:	e4c45783          	lhu	a5,-436(s0)
    164c:	85be                	mv	a1,a5
    164e:	853a                	mv	a0,a4
    1650:	149010ef          	jal	ra,2f98 <__mulsi3>
    1654:	87aa                	mv	a5,a0
    1656:	873e                	mv	a4,a5
    1658:	e4e45783          	lhu	a5,-434(s0)
    165c:	85be                	mv	a1,a5
    165e:	853a                	mv	a0,a4
    1660:	139010ef          	jal	ra,2f98 <__mulsi3>
    1664:	87aa                	mv	a5,a0
    1666:	84be                	mv	s1,a5
    1668:	e4e45783          	lhu	a5,-434(s0)
    166c:	fe042583          	lw	a1,-32(s0)
    1670:	853e                	mv	a0,a5
    1672:	127010ef          	jal	ra,2f98 <__mulsi3>
    1676:	87aa                	mv	a5,a0
    1678:	873e                	mv	a4,a5
    167a:	f8c42783          	lw	a5,-116(s0)
    167e:	97ba                	add	a5,a5,a4
    1680:	e5645703          	lhu	a4,-426(s0)
    1684:	85ba                	mv	a1,a4
    1686:	853e                	mv	a0,a5
    1688:	111010ef          	jal	ra,2f98 <__mulsi3>
    168c:	87aa                	mv	a5,a0
    168e:	97a6                	add	a5,a5,s1
    1690:	faf42e23          	sw	a5,-68(s0)
    1694:	fcc42783          	lw	a5,-52(s0)
    1698:	e5c42703          	lw	a4,-420(s0)
    169c:	97ba                	add	a5,a5,a4
    169e:	439c                	lw	a5,0(a5)
    16a0:	f6f42a23          	sw	a5,-140(s0)
    16a4:	fc842783          	lw	a5,-56(s0)
    16a8:	e5042703          	lw	a4,-432(s0)
    16ac:	97ba                	add	a5,a5,a4
    16ae:	439c                	lw	a5,0(a5)
    16b0:	f6f42823          	sw	a5,-144(s0)
    16b4:	fc442783          	lw	a5,-60(s0)
    16b8:	e5042703          	lw	a4,-432(s0)
    16bc:	97ba                	add	a5,a5,a4
    16be:	439c                	lw	a5,0(a5)
    16c0:	f6f42623          	sw	a5,-148(s0)
    16c4:	fc042783          	lw	a5,-64(s0)
    16c8:	e5042703          	lw	a4,-432(s0)
    16cc:	97ba                	add	a5,a5,a4
    16ce:	439c                	lw	a5,0(a5)
    16d0:	f6f42423          	sw	a5,-152(s0)
    16d4:	fbc42783          	lw	a5,-68(s0)
    16d8:	e5042703          	lw	a4,-432(s0)
    16dc:	97ba                	add	a5,a5,a4
    16de:	439c                	lw	a5,0(a5)
    16e0:	f6f42223          	sw	a5,-156(s0)
    16e4:	fdc42583          	lw	a1,-36(s0)
    16e8:	fd842603          	lw	a2,-40(s0)
    16ec:	fd442683          	lw	a3,-44(s0)
    16f0:	fd042503          	lw	a0,-48(s0)
    16f4:	f7442303          	lw	t1,-140(s0)
    16f8:	f7042803          	lw	a6,-144(s0)
    16fc:	f6c42883          	lw	a7,-148(s0)
    1700:	f6842783          	lw	a5,-152(s0)
    1704:	f6442703          	lw	a4,-156(s0)
    1708:	c23a                	sw	a4,4(sp)
    170a:	c03e                	sw	a5,0(sp)
    170c:	879a                	mv	a5,t1
    170e:	872a                	mv	a4,a0
    1710:	4511                	li	a0,4
    1712:	3ac9                	jal	10e4 <ML_ACC>
    1714:	3ca5                	jal	118c <read_out0>
    1716:	fca42e23          	sw	a0,-36(s0)
    171a:	3469                	jal	11a4 <read_out1>
    171c:	fca42c23          	sw	a0,-40(s0)
    1720:	3c71                	jal	11bc <read_out2>
    1722:	fca42a23          	sw	a0,-44(s0)
    1726:	347d                	jal	11d4 <read_out3>
    1728:	fca42823          	sw	a0,-48(s0)
    172c:	4785                	li	a5,1
    172e:	faf42c23          	sw	a5,-72(s0)
    1732:	a8d9                	j	1808 <local_convolve_HWC_q7_nonsquare+0x570>
    1734:	fcc42783          	lw	a5,-52(s0)
    1738:	0791                	addi	a5,a5,4
    173a:	fcf42623          	sw	a5,-52(s0)
    173e:	fc842783          	lw	a5,-56(s0)
    1742:	0791                	addi	a5,a5,4
    1744:	fcf42423          	sw	a5,-56(s0)
    1748:	fc442783          	lw	a5,-60(s0)
    174c:	0791                	addi	a5,a5,4
    174e:	fcf42223          	sw	a5,-60(s0)
    1752:	fc042783          	lw	a5,-64(s0)
    1756:	0791                	addi	a5,a5,4
    1758:	fcf42023          	sw	a5,-64(s0)
    175c:	fbc42783          	lw	a5,-68(s0)
    1760:	0791                	addi	a5,a5,4
    1762:	faf42e23          	sw	a5,-68(s0)
    1766:	fcc42783          	lw	a5,-52(s0)
    176a:	e5c42703          	lw	a4,-420(s0)
    176e:	97ba                	add	a5,a5,a4
    1770:	439c                	lw	a5,0(a5)
    1772:	f6f42023          	sw	a5,-160(s0)
    1776:	fc842783          	lw	a5,-56(s0)
    177a:	e5042703          	lw	a4,-432(s0)
    177e:	97ba                	add	a5,a5,a4
    1780:	439c                	lw	a5,0(a5)
    1782:	f4f42e23          	sw	a5,-164(s0)
    1786:	fc442783          	lw	a5,-60(s0)
    178a:	e5042703          	lw	a4,-432(s0)
    178e:	97ba                	add	a5,a5,a4
    1790:	439c                	lw	a5,0(a5)
    1792:	f4f42c23          	sw	a5,-168(s0)
    1796:	fc042783          	lw	a5,-64(s0)
    179a:	e5042703          	lw	a4,-432(s0)
    179e:	97ba                	add	a5,a5,a4
    17a0:	439c                	lw	a5,0(a5)
    17a2:	f4f42a23          	sw	a5,-172(s0)
    17a6:	fbc42783          	lw	a5,-68(s0)
    17aa:	e5042703          	lw	a4,-432(s0)
    17ae:	97ba                	add	a5,a5,a4
    17b0:	439c                	lw	a5,0(a5)
    17b2:	f4f42823          	sw	a5,-176(s0)
    17b6:	fdc42583          	lw	a1,-36(s0)
    17ba:	fd842603          	lw	a2,-40(s0)
    17be:	fd442683          	lw	a3,-44(s0)
    17c2:	fd042503          	lw	a0,-48(s0)
    17c6:	f6042303          	lw	t1,-160(s0)
    17ca:	f5c42803          	lw	a6,-164(s0)
    17ce:	f5842883          	lw	a7,-168(s0)
    17d2:	f5442783          	lw	a5,-172(s0)
    17d6:	f5042703          	lw	a4,-176(s0)
    17da:	c23a                	sw	a4,4(sp)
    17dc:	c03e                	sw	a5,0(sp)
    17de:	879a                	mv	a5,t1
    17e0:	872a                	mv	a4,a0
    17e2:	4511                	li	a0,4
    17e4:	3201                	jal	10e4 <ML_ACC>
    17e6:	325d                	jal	118c <read_out0>
    17e8:	fca42e23          	sw	a0,-36(s0)
    17ec:	3a65                	jal	11a4 <read_out1>
    17ee:	fca42c23          	sw	a0,-40(s0)
    17f2:	32e9                	jal	11bc <read_out2>
    17f4:	fca42a23          	sw	a0,-44(s0)
    17f8:	3af1                	jal	11d4 <read_out3>
    17fa:	fca42823          	sw	a0,-48(s0)
    17fe:	fb842783          	lw	a5,-72(s0)
    1802:	0785                	addi	a5,a5,1
    1804:	faf42c23          	sw	a5,-72(s0)
    1808:	f7842783          	lw	a5,-136(s0)
    180c:	41f7d713          	srai	a4,a5,0x1f
    1810:	8b0d                	andi	a4,a4,3
    1812:	97ba                	add	a5,a5,a4
    1814:	8789                	srai	a5,a5,0x2
    1816:	873e                	mv	a4,a5
    1818:	fb842783          	lw	a5,-72(s0)
    181c:	f0e7cce3          	blt	a5,a4,1734 <local_convolve_HWC_q7_nonsquare+0x49c>
    1820:	f7842783          	lw	a5,-136(s0)
    1824:	8b8d                	andi	a5,a5,3
    1826:	f4f42623          	sw	a5,-180(s0)
    182a:	f4c42783          	lw	a5,-180(s0)
    182e:	0cf05963          	blez	a5,1900 <local_convolve_HWC_q7_nonsquare+0x668>
    1832:	fcc42783          	lw	a5,-52(s0)
    1836:	0791                	addi	a5,a5,4
    1838:	fcf42623          	sw	a5,-52(s0)
    183c:	fc842783          	lw	a5,-56(s0)
    1840:	0791                	addi	a5,a5,4
    1842:	fcf42423          	sw	a5,-56(s0)
    1846:	fc442783          	lw	a5,-60(s0)
    184a:	0791                	addi	a5,a5,4
    184c:	fcf42223          	sw	a5,-60(s0)
    1850:	fc042783          	lw	a5,-64(s0)
    1854:	0791                	addi	a5,a5,4
    1856:	fcf42023          	sw	a5,-64(s0)
    185a:	fbc42783          	lw	a5,-68(s0)
    185e:	0791                	addi	a5,a5,4
    1860:	faf42e23          	sw	a5,-68(s0)
    1864:	fcc42783          	lw	a5,-52(s0)
    1868:	e5c42703          	lw	a4,-420(s0)
    186c:	97ba                	add	a5,a5,a4
    186e:	439c                	lw	a5,0(a5)
    1870:	f4f42423          	sw	a5,-184(s0)
    1874:	fc842783          	lw	a5,-56(s0)
    1878:	e5042703          	lw	a4,-432(s0)
    187c:	97ba                	add	a5,a5,a4
    187e:	439c                	lw	a5,0(a5)
    1880:	f4f42223          	sw	a5,-188(s0)
    1884:	fc442783          	lw	a5,-60(s0)
    1888:	e5042703          	lw	a4,-432(s0)
    188c:	97ba                	add	a5,a5,a4
    188e:	439c                	lw	a5,0(a5)
    1890:	f4f42023          	sw	a5,-192(s0)
    1894:	fc042783          	lw	a5,-64(s0)
    1898:	e5042703          	lw	a4,-432(s0)
    189c:	97ba                	add	a5,a5,a4
    189e:	439c                	lw	a5,0(a5)
    18a0:	f2f42e23          	sw	a5,-196(s0)
    18a4:	fbc42783          	lw	a5,-68(s0)
    18a8:	e5042703          	lw	a4,-432(s0)
    18ac:	97ba                	add	a5,a5,a4
    18ae:	439c                	lw	a5,0(a5)
    18b0:	f2f42c23          	sw	a5,-200(s0)
    18b4:	f4c42503          	lw	a0,-180(s0)
    18b8:	fdc42583          	lw	a1,-36(s0)
    18bc:	fd842603          	lw	a2,-40(s0)
    18c0:	fd442683          	lw	a3,-44(s0)
    18c4:	fd042303          	lw	t1,-48(s0)
    18c8:	f4842e03          	lw	t3,-184(s0)
    18cc:	f4442803          	lw	a6,-188(s0)
    18d0:	f4042883          	lw	a7,-192(s0)
    18d4:	f3c42783          	lw	a5,-196(s0)
    18d8:	f3842703          	lw	a4,-200(s0)
    18dc:	c23a                	sw	a4,4(sp)
    18de:	c03e                	sw	a5,0(sp)
    18e0:	87f2                	mv	a5,t3
    18e2:	871a                	mv	a4,t1
    18e4:	801ff0ef          	jal	ra,10e4 <ML_ACC>
    18e8:	3055                	jal	118c <read_out0>
    18ea:	fca42e23          	sw	a0,-36(s0)
    18ee:	385d                	jal	11a4 <read_out1>
    18f0:	fca42c23          	sw	a0,-40(s0)
    18f4:	30e1                	jal	11bc <read_out2>
    18f6:	fca42a23          	sw	a0,-44(s0)
    18fa:	38e9                	jal	11d4 <read_out3>
    18fc:	fca42823          	sw	a0,-48(s0)
    1900:	fe042783          	lw	a5,-32(s0)
    1904:	0785                	addi	a5,a5,1
    1906:	fef42023          	sw	a5,-32(s0)
    190a:	fe042703          	lw	a4,-32(s0)
    190e:	f8842783          	lw	a5,-120(s0)
    1912:	b4f74ce3          	blt	a4,a5,146a <local_convolve_HWC_q7_nonsquare+0x1d2>
    1916:	fec42783          	lw	a5,-20(s0)
    191a:	00279493          	slli	s1,a5,0x2
    191e:	02045783          	lhu	a5,32(s0)
    1922:	fe842583          	lw	a1,-24(s0)
    1926:	853e                	mv	a0,a5
    1928:	670010ef          	jal	ra,2f98 <__mulsi3>
    192c:	87aa                	mv	a5,a0
    192e:	873e                	mv	a4,a5
    1930:	fe442783          	lw	a5,-28(s0)
    1934:	97ba                	add	a5,a5,a4
    1936:	e5445703          	lhu	a4,-428(s0)
    193a:	85ba                	mv	a1,a4
    193c:	853e                	mv	a0,a5
    193e:	65a010ef          	jal	ra,2f98 <__mulsi3>
    1942:	87aa                	mv	a5,a0
    1944:	97a6                	add	a5,a5,s1
    1946:	873e                	mv	a4,a5
    1948:	4c5c                	lw	a5,28(s0)
    194a:	97ba                	add	a5,a5,a4
    194c:	fdc42703          	lw	a4,-36(s0)
    1950:	0762                	slli	a4,a4,0x18
    1952:	8761                	srai	a4,a4,0x18
    1954:	00e78023          	sb	a4,0(a5)
    1958:	fec42783          	lw	a5,-20(s0)
    195c:	078a                	slli	a5,a5,0x2
    195e:	00178493          	addi	s1,a5,1
    1962:	02045783          	lhu	a5,32(s0)
    1966:	fe842583          	lw	a1,-24(s0)
    196a:	853e                	mv	a0,a5
    196c:	62c010ef          	jal	ra,2f98 <__mulsi3>
    1970:	87aa                	mv	a5,a0
    1972:	873e                	mv	a4,a5
    1974:	fe442783          	lw	a5,-28(s0)
    1978:	97ba                	add	a5,a5,a4
    197a:	e5445703          	lhu	a4,-428(s0)
    197e:	85ba                	mv	a1,a4
    1980:	853e                	mv	a0,a5
    1982:	616010ef          	jal	ra,2f98 <__mulsi3>
    1986:	87aa                	mv	a5,a0
    1988:	97a6                	add	a5,a5,s1
    198a:	873e                	mv	a4,a5
    198c:	4c5c                	lw	a5,28(s0)
    198e:	97ba                	add	a5,a5,a4
    1990:	fd842703          	lw	a4,-40(s0)
    1994:	0762                	slli	a4,a4,0x18
    1996:	8761                	srai	a4,a4,0x18
    1998:	00e78023          	sb	a4,0(a5)
    199c:	fec42783          	lw	a5,-20(s0)
    19a0:	078a                	slli	a5,a5,0x2
    19a2:	00278493          	addi	s1,a5,2
    19a6:	02045783          	lhu	a5,32(s0)
    19aa:	fe842583          	lw	a1,-24(s0)
    19ae:	853e                	mv	a0,a5
    19b0:	5e8010ef          	jal	ra,2f98 <__mulsi3>
    19b4:	87aa                	mv	a5,a0
    19b6:	873e                	mv	a4,a5
    19b8:	fe442783          	lw	a5,-28(s0)
    19bc:	97ba                	add	a5,a5,a4
    19be:	e5445703          	lhu	a4,-428(s0)
    19c2:	85ba                	mv	a1,a4
    19c4:	853e                	mv	a0,a5
    19c6:	5d2010ef          	jal	ra,2f98 <__mulsi3>
    19ca:	87aa                	mv	a5,a0
    19cc:	97a6                	add	a5,a5,s1
    19ce:	873e                	mv	a4,a5
    19d0:	4c5c                	lw	a5,28(s0)
    19d2:	97ba                	add	a5,a5,a4
    19d4:	fd442703          	lw	a4,-44(s0)
    19d8:	0762                	slli	a4,a4,0x18
    19da:	8761                	srai	a4,a4,0x18
    19dc:	00e78023          	sb	a4,0(a5)
    19e0:	fec42783          	lw	a5,-20(s0)
    19e4:	078a                	slli	a5,a5,0x2
    19e6:	00378493          	addi	s1,a5,3
    19ea:	02045783          	lhu	a5,32(s0)
    19ee:	fe842583          	lw	a1,-24(s0)
    19f2:	853e                	mv	a0,a5
    19f4:	5a4010ef          	jal	ra,2f98 <__mulsi3>
    19f8:	87aa                	mv	a5,a0
    19fa:	873e                	mv	a4,a5
    19fc:	fe442783          	lw	a5,-28(s0)
    1a00:	97ba                	add	a5,a5,a4
    1a02:	e5445703          	lhu	a4,-428(s0)
    1a06:	85ba                	mv	a1,a4
    1a08:	853e                	mv	a0,a5
    1a0a:	58e010ef          	jal	ra,2f98 <__mulsi3>
    1a0e:	87aa                	mv	a5,a0
    1a10:	97a6                	add	a5,a5,s1
    1a12:	873e                	mv	a4,a5
    1a14:	4c5c                	lw	a5,28(s0)
    1a16:	97ba                	add	a5,a5,a4
    1a18:	fd042703          	lw	a4,-48(s0)
    1a1c:	0762                	slli	a4,a4,0x18
    1a1e:	8761                	srai	a4,a4,0x18
    1a20:	00e78023          	sb	a4,0(a5)
    1a24:	fe442783          	lw	a5,-28(s0)
    1a28:	0785                	addi	a5,a5,1
    1a2a:	fef42223          	sw	a5,-28(s0)
    1a2e:	02045783          	lhu	a5,32(s0)
    1a32:	fe442703          	lw	a4,-28(s0)
    1a36:	90f748e3          	blt	a4,a5,1346 <local_convolve_HWC_q7_nonsquare+0xae>
    1a3a:	fe842783          	lw	a5,-24(s0)
    1a3e:	0785                	addi	a5,a5,1
    1a40:	fef42423          	sw	a5,-24(s0)
    1a44:	02445783          	lhu	a5,36(s0)
    1a48:	fe842703          	lw	a4,-24(s0)
    1a4c:	8cf74be3          	blt	a4,a5,1322 <local_convolve_HWC_q7_nonsquare+0x8a>
    1a50:	fec42783          	lw	a5,-20(s0)
    1a54:	0785                	addi	a5,a5,1
    1a56:	fef42623          	sw	a5,-20(s0)
    1a5a:	e5445783          	lhu	a5,-428(s0)
    1a5e:	8389                	srli	a5,a5,0x2
    1a60:	07c2                	slli	a5,a5,0x10
    1a62:	83c1                	srli	a5,a5,0x10
    1a64:	873e                	mv	a4,a5
    1a66:	fec42783          	lw	a5,-20(s0)
    1a6a:	8ae7c8e3          	blt	a5,a4,131a <local_convolve_HWC_q7_nonsquare+0x82>
    1a6e:	e5445783          	lhu	a5,-428(s0)
    1a72:	8b8d                	andi	a5,a5,3
    1a74:	f2f42a23          	sw	a5,-204(s0)
    1a78:	f3442783          	lw	a5,-204(s0)
    1a7c:	00f04463          	bgtz	a5,1a84 <local_convolve_HWC_q7_nonsquare+0x7ec>
    1a80:	7410006f          	j	29c0 <local_convolve_HWC_q7_nonsquare+0x1728>
    1a84:	f3442703          	lw	a4,-204(s0)
    1a88:	4785                	li	a5,1
    1a8a:	3ef71f63          	bne	a4,a5,1e88 <local_convolve_HWC_q7_nonsquare+0xbf0>
    1a8e:	fe042423          	sw	zero,-24(s0)
    1a92:	a6dd                	j	1e78 <local_convolve_HWC_q7_nonsquare+0xbe0>
    1a94:	00c45783          	lhu	a5,12(s0)
    1a98:	fe842583          	lw	a1,-24(s0)
    1a9c:	853e                	mv	a0,a5
    1a9e:	4fa010ef          	jal	ra,2f98 <__mulsi3>
    1aa2:	87aa                	mv	a5,a0
    1aa4:	873e                	mv	a4,a5
    1aa6:	00445783          	lhu	a5,4(s0)
    1aaa:	40f707b3          	sub	a5,a4,a5
    1aae:	f2f42823          	sw	a5,-208(s0)
    1ab2:	fe042223          	sw	zero,-28(s0)
    1ab6:	a675                	j	1e62 <local_convolve_HWC_q7_nonsquare+0xbca>
    1ab8:	00845783          	lhu	a5,8(s0)
    1abc:	fe442583          	lw	a1,-28(s0)
    1ac0:	853e                	mv	a0,a5
    1ac2:	4d6010ef          	jal	ra,2f98 <__mulsi3>
    1ac6:	87aa                	mv	a5,a0
    1ac8:	873e                	mv	a4,a5
    1aca:	00045783          	lhu	a5,0(s0)
    1ace:	40f707b3          	sub	a5,a4,a5
    1ad2:	f2f42623          	sw	a5,-212(s0)
    1ad6:	01445783          	lhu	a5,20(s0)
    1ada:	fff78713          	addi	a4,a5,-1
    1ade:	f3042783          	lw	a5,-208(s0)
    1ae2:	40f707b3          	sub	a5,a4,a5
    1ae6:	01445703          	lhu	a4,20(s0)
    1aea:	85ba                	mv	a1,a4
    1aec:	853e                	mv	a0,a5
    1aee:	4ce010ef          	jal	ra,2fbc <__divsi3>
    1af2:	87aa                	mv	a5,a0
    1af4:	0007d363          	bgez	a5,1afa <local_convolve_HWC_q7_nonsquare+0x862>
    1af8:	4781                	li	a5,0
    1afa:	f2f42423          	sw	a5,-216(s0)
    1afe:	01045783          	lhu	a5,16(s0)
    1b02:	fff78713          	addi	a4,a5,-1
    1b06:	f2c42783          	lw	a5,-212(s0)
    1b0a:	40f707b3          	sub	a5,a4,a5
    1b0e:	01045703          	lhu	a4,16(s0)
    1b12:	85ba                	mv	a1,a4
    1b14:	853e                	mv	a0,a5
    1b16:	4a6010ef          	jal	ra,2fbc <__divsi3>
    1b1a:	87aa                	mv	a5,a0
    1b1c:	0007d363          	bgez	a5,1b22 <local_convolve_HWC_q7_nonsquare+0x88a>
    1b20:	4781                	li	a5,0
    1b22:	f2f42223          	sw	a5,-220(s0)
    1b26:	e5845703          	lhu	a4,-424(s0)
    1b2a:	f3042783          	lw	a5,-208(s0)
    1b2e:	8f1d                	sub	a4,a4,a5
    1b30:	01445783          	lhu	a5,20(s0)
    1b34:	17fd                	addi	a5,a5,-1
    1b36:	97ba                	add	a5,a5,a4
    1b38:	01445703          	lhu	a4,20(s0)
    1b3c:	85ba                	mv	a1,a4
    1b3e:	853e                	mv	a0,a5
    1b40:	47c010ef          	jal	ra,2fbc <__divsi3>
    1b44:	87aa                	mv	a5,a0
    1b46:	e4c45703          	lhu	a4,-436(s0)
    1b4a:	00f75363          	bge	a4,a5,1b50 <local_convolve_HWC_q7_nonsquare+0x8b8>
    1b4e:	87ba                	mv	a5,a4
    1b50:	f2f42023          	sw	a5,-224(s0)
    1b54:	e5a45703          	lhu	a4,-422(s0)
    1b58:	f2c42783          	lw	a5,-212(s0)
    1b5c:	8f1d                	sub	a4,a4,a5
    1b5e:	01045783          	lhu	a5,16(s0)
    1b62:	17fd                	addi	a5,a5,-1
    1b64:	97ba                	add	a5,a5,a4
    1b66:	01045703          	lhu	a4,16(s0)
    1b6a:	85ba                	mv	a1,a4
    1b6c:	853e                	mv	a0,a5
    1b6e:	44e010ef          	jal	ra,2fbc <__divsi3>
    1b72:	87aa                	mv	a5,a0
    1b74:	e4e45703          	lhu	a4,-434(s0)
    1b78:	00f75363          	bge	a4,a5,1b7e <local_convolve_HWC_q7_nonsquare+0x8e6>
    1b7c:	87ba                	mv	a5,a4
    1b7e:	f0f42e23          	sw	a5,-228(s0)
    1b82:	e5445783          	lhu	a5,-428(s0)
    1b86:	17fd                	addi	a5,a5,-1
    1b88:	4c18                	lw	a4,24(s0)
    1b8a:	97ba                	add	a5,a5,a4
    1b8c:	00078783          	lb	a5,0(a5)
    1b90:	fcf42e23          	sw	a5,-36(s0)
    1b94:	fc042c23          	sw	zero,-40(s0)
    1b98:	fc042a23          	sw	zero,-44(s0)
    1b9c:	fc042823          	sw	zero,-48(s0)
    1ba0:	f2842783          	lw	a5,-216(s0)
    1ba4:	fef42023          	sw	a5,-32(s0)
    1ba8:	a48d                	j	1e0a <local_convolve_HWC_q7_nonsquare+0xb72>
    1baa:	00c45783          	lhu	a5,12(s0)
    1bae:	fe842583          	lw	a1,-24(s0)
    1bb2:	853e                	mv	a0,a5
    1bb4:	3e4010ef          	jal	ra,2f98 <__mulsi3>
    1bb8:	87aa                	mv	a5,a0
    1bba:	84be                	mv	s1,a5
    1bbc:	01445783          	lhu	a5,20(s0)
    1bc0:	fe042583          	lw	a1,-32(s0)
    1bc4:	853e                	mv	a0,a5
    1bc6:	3d2010ef          	jal	ra,2f98 <__mulsi3>
    1bca:	87aa                	mv	a5,a0
    1bcc:	00f48733          	add	a4,s1,a5
    1bd0:	00445783          	lhu	a5,4(s0)
    1bd4:	40f707b3          	sub	a5,a4,a5
    1bd8:	f8f42023          	sw	a5,-128(s0)
    1bdc:	00845783          	lhu	a5,8(s0)
    1be0:	fe442583          	lw	a1,-28(s0)
    1be4:	853e                	mv	a0,a5
    1be6:	3b2010ef          	jal	ra,2f98 <__mulsi3>
    1bea:	87aa                	mv	a5,a0
    1bec:	873e                	mv	a4,a5
    1bee:	f2442783          	lw	a5,-220(s0)
    1bf2:	973e                	add	a4,a4,a5
    1bf4:	00045783          	lhu	a5,0(s0)
    1bf8:	40f707b3          	sub	a5,a4,a5
    1bfc:	f6f42e23          	sw	a5,-132(s0)
    1c00:	f1c42703          	lw	a4,-228(s0)
    1c04:	f2442783          	lw	a5,-220(s0)
    1c08:	40f707b3          	sub	a5,a4,a5
    1c0c:	e5645703          	lhu	a4,-426(s0)
    1c10:	85ba                	mv	a1,a4
    1c12:	853e                	mv	a0,a5
    1c14:	384010ef          	jal	ra,2f98 <__mulsi3>
    1c18:	87aa                	mv	a5,a0
    1c1a:	f0f42c23          	sw	a5,-232(s0)
    1c1e:	e5a45783          	lhu	a5,-422(s0)
    1c22:	f8042583          	lw	a1,-128(s0)
    1c26:	853e                	mv	a0,a5
    1c28:	370010ef          	jal	ra,2f98 <__mulsi3>
    1c2c:	87aa                	mv	a5,a0
    1c2e:	873e                	mv	a4,a5
    1c30:	f7c42783          	lw	a5,-132(s0)
    1c34:	97ba                	add	a5,a5,a4
    1c36:	e5645703          	lhu	a4,-426(s0)
    1c3a:	85ba                	mv	a1,a4
    1c3c:	853e                	mv	a0,a5
    1c3e:	35a010ef          	jal	ra,2f98 <__mulsi3>
    1c42:	87aa                	mv	a5,a0
    1c44:	fcf42623          	sw	a5,-52(s0)
    1c48:	e5445783          	lhu	a5,-428(s0)
    1c4c:	17fd                	addi	a5,a5,-1
    1c4e:	e5645703          	lhu	a4,-426(s0)
    1c52:	85ba                	mv	a1,a4
    1c54:	853e                	mv	a0,a5
    1c56:	342010ef          	jal	ra,2f98 <__mulsi3>
    1c5a:	87aa                	mv	a5,a0
    1c5c:	873e                	mv	a4,a5
    1c5e:	e4c45783          	lhu	a5,-436(s0)
    1c62:	85be                	mv	a1,a5
    1c64:	853a                	mv	a0,a4
    1c66:	332010ef          	jal	ra,2f98 <__mulsi3>
    1c6a:	87aa                	mv	a5,a0
    1c6c:	873e                	mv	a4,a5
    1c6e:	e4e45783          	lhu	a5,-434(s0)
    1c72:	85be                	mv	a1,a5
    1c74:	853a                	mv	a0,a4
    1c76:	322010ef          	jal	ra,2f98 <__mulsi3>
    1c7a:	87aa                	mv	a5,a0
    1c7c:	84be                	mv	s1,a5
    1c7e:	e4e45783          	lhu	a5,-434(s0)
    1c82:	fe042583          	lw	a1,-32(s0)
    1c86:	853e                	mv	a0,a5
    1c88:	310010ef          	jal	ra,2f98 <__mulsi3>
    1c8c:	87aa                	mv	a5,a0
    1c8e:	873e                	mv	a4,a5
    1c90:	f2442783          	lw	a5,-220(s0)
    1c94:	97ba                	add	a5,a5,a4
    1c96:	e5645703          	lhu	a4,-426(s0)
    1c9a:	85ba                	mv	a1,a4
    1c9c:	853e                	mv	a0,a5
    1c9e:	2fa010ef          	jal	ra,2f98 <__mulsi3>
    1ca2:	87aa                	mv	a5,a0
    1ca4:	97a6                	add	a5,a5,s1
    1ca6:	fcf42423          	sw	a5,-56(s0)
    1caa:	fcc42783          	lw	a5,-52(s0)
    1cae:	e5c42703          	lw	a4,-420(s0)
    1cb2:	97ba                	add	a5,a5,a4
    1cb4:	439c                	lw	a5,0(a5)
    1cb6:	f0f42a23          	sw	a5,-236(s0)
    1cba:	fc842783          	lw	a5,-56(s0)
    1cbe:	e5042703          	lw	a4,-432(s0)
    1cc2:	97ba                	add	a5,a5,a4
    1cc4:	439c                	lw	a5,0(a5)
    1cc6:	f0f42823          	sw	a5,-240(s0)
    1cca:	fdc42583          	lw	a1,-36(s0)
    1cce:	fd842603          	lw	a2,-40(s0)
    1cd2:	fd442683          	lw	a3,-44(s0)
    1cd6:	fd042703          	lw	a4,-48(s0)
    1cda:	f1442783          	lw	a5,-236(s0)
    1cde:	f1042503          	lw	a0,-240(s0)
    1ce2:	c202                	sw	zero,4(sp)
    1ce4:	c002                	sw	zero,0(sp)
    1ce6:	4881                	li	a7,0
    1ce8:	882a                	mv	a6,a0
    1cea:	4511                	li	a0,4
    1cec:	bf8ff0ef          	jal	ra,10e4 <ML_ACC>
    1cf0:	c9cff0ef          	jal	ra,118c <read_out0>
    1cf4:	fca42e23          	sw	a0,-36(s0)
    1cf8:	4785                	li	a5,1
    1cfa:	faf42a23          	sw	a5,-76(s0)
    1cfe:	a89d                	j	1d74 <local_convolve_HWC_q7_nonsquare+0xadc>
    1d00:	fcc42783          	lw	a5,-52(s0)
    1d04:	0791                	addi	a5,a5,4
    1d06:	fcf42623          	sw	a5,-52(s0)
    1d0a:	fc842783          	lw	a5,-56(s0)
    1d0e:	0791                	addi	a5,a5,4
    1d10:	fcf42423          	sw	a5,-56(s0)
    1d14:	fcc42783          	lw	a5,-52(s0)
    1d18:	e5c42703          	lw	a4,-420(s0)
    1d1c:	97ba                	add	a5,a5,a4
    1d1e:	439c                	lw	a5,0(a5)
    1d20:	f0f42623          	sw	a5,-244(s0)
    1d24:	fc842783          	lw	a5,-56(s0)
    1d28:	e5042703          	lw	a4,-432(s0)
    1d2c:	97ba                	add	a5,a5,a4
    1d2e:	439c                	lw	a5,0(a5)
    1d30:	f0f42423          	sw	a5,-248(s0)
    1d34:	fdc42583          	lw	a1,-36(s0)
    1d38:	fd842603          	lw	a2,-40(s0)
    1d3c:	fd442683          	lw	a3,-44(s0)
    1d40:	fd042703          	lw	a4,-48(s0)
    1d44:	f0c42783          	lw	a5,-244(s0)
    1d48:	f0842503          	lw	a0,-248(s0)
    1d4c:	c202                	sw	zero,4(sp)
    1d4e:	c002                	sw	zero,0(sp)
    1d50:	4881                	li	a7,0
    1d52:	882a                	mv	a6,a0
    1d54:	4511                	li	a0,4
    1d56:	b8eff0ef          	jal	ra,10e4 <ML_ACC>
    1d5a:	c32ff0ef          	jal	ra,118c <read_out0>
    1d5e:	fca42e23          	sw	a0,-36(s0)
    1d62:	c42ff0ef          	jal	ra,11a4 <read_out1>
    1d66:	fca42c23          	sw	a0,-40(s0)
    1d6a:	fb442783          	lw	a5,-76(s0)
    1d6e:	0785                	addi	a5,a5,1
    1d70:	faf42a23          	sw	a5,-76(s0)
    1d74:	f1842783          	lw	a5,-232(s0)
    1d78:	41f7d713          	srai	a4,a5,0x1f
    1d7c:	8b0d                	andi	a4,a4,3
    1d7e:	97ba                	add	a5,a5,a4
    1d80:	8789                	srai	a5,a5,0x2
    1d82:	873e                	mv	a4,a5
    1d84:	fb442783          	lw	a5,-76(s0)
    1d88:	f6e7cce3          	blt	a5,a4,1d00 <local_convolve_HWC_q7_nonsquare+0xa68>
    1d8c:	f1842783          	lw	a5,-232(s0)
    1d90:	8b8d                	andi	a5,a5,3
    1d92:	f0f42223          	sw	a5,-252(s0)
    1d96:	f0442783          	lw	a5,-252(s0)
    1d9a:	06f05363          	blez	a5,1e00 <local_convolve_HWC_q7_nonsquare+0xb68>
    1d9e:	fcc42783          	lw	a5,-52(s0)
    1da2:	0791                	addi	a5,a5,4
    1da4:	fcf42623          	sw	a5,-52(s0)
    1da8:	fc842783          	lw	a5,-56(s0)
    1dac:	0791                	addi	a5,a5,4
    1dae:	fcf42423          	sw	a5,-56(s0)
    1db2:	fcc42783          	lw	a5,-52(s0)
    1db6:	e5c42703          	lw	a4,-420(s0)
    1dba:	97ba                	add	a5,a5,a4
    1dbc:	439c                	lw	a5,0(a5)
    1dbe:	f0f42023          	sw	a5,-256(s0)
    1dc2:	fc842783          	lw	a5,-56(s0)
    1dc6:	e5042703          	lw	a4,-432(s0)
    1dca:	97ba                	add	a5,a5,a4
    1dcc:	439c                	lw	a5,0(a5)
    1dce:	eef42e23          	sw	a5,-260(s0)
    1dd2:	fdc42583          	lw	a1,-36(s0)
    1dd6:	fd842603          	lw	a2,-40(s0)
    1dda:	fd442683          	lw	a3,-44(s0)
    1dde:	fd042703          	lw	a4,-48(s0)
    1de2:	f0042783          	lw	a5,-256(s0)
    1de6:	efc42503          	lw	a0,-260(s0)
    1dea:	c202                	sw	zero,4(sp)
    1dec:	c002                	sw	zero,0(sp)
    1dee:	4881                	li	a7,0
    1df0:	882a                	mv	a6,a0
    1df2:	4511                	li	a0,4
    1df4:	af0ff0ef          	jal	ra,10e4 <ML_ACC>
    1df8:	b94ff0ef          	jal	ra,118c <read_out0>
    1dfc:	fca42e23          	sw	a0,-36(s0)
    1e00:	fe042783          	lw	a5,-32(s0)
    1e04:	0785                	addi	a5,a5,1
    1e06:	fef42023          	sw	a5,-32(s0)
    1e0a:	fe042703          	lw	a4,-32(s0)
    1e0e:	f2042783          	lw	a5,-224(s0)
    1e12:	d8f74ce3          	blt	a4,a5,1baa <local_convolve_HWC_q7_nonsquare+0x912>
    1e16:	e5445783          	lhu	a5,-428(s0)
    1e1a:	fff78493          	addi	s1,a5,-1
    1e1e:	02045783          	lhu	a5,32(s0)
    1e22:	fe842583          	lw	a1,-24(s0)
    1e26:	853e                	mv	a0,a5
    1e28:	170010ef          	jal	ra,2f98 <__mulsi3>
    1e2c:	87aa                	mv	a5,a0
    1e2e:	873e                	mv	a4,a5
    1e30:	fe442783          	lw	a5,-28(s0)
    1e34:	97ba                	add	a5,a5,a4
    1e36:	e5445703          	lhu	a4,-428(s0)
    1e3a:	85ba                	mv	a1,a4
    1e3c:	853e                	mv	a0,a5
    1e3e:	15a010ef          	jal	ra,2f98 <__mulsi3>
    1e42:	87aa                	mv	a5,a0
    1e44:	97a6                	add	a5,a5,s1
    1e46:	873e                	mv	a4,a5
    1e48:	4c5c                	lw	a5,28(s0)
    1e4a:	97ba                	add	a5,a5,a4
    1e4c:	fdc42703          	lw	a4,-36(s0)
    1e50:	0762                	slli	a4,a4,0x18
    1e52:	8761                	srai	a4,a4,0x18
    1e54:	00e78023          	sb	a4,0(a5)
    1e58:	fe442783          	lw	a5,-28(s0)
    1e5c:	0785                	addi	a5,a5,1
    1e5e:	fef42223          	sw	a5,-28(s0)
    1e62:	02045783          	lhu	a5,32(s0)
    1e66:	fe442703          	lw	a4,-28(s0)
    1e6a:	c4f747e3          	blt	a4,a5,1ab8 <local_convolve_HWC_q7_nonsquare+0x820>
    1e6e:	fe842783          	lw	a5,-24(s0)
    1e72:	0785                	addi	a5,a5,1
    1e74:	fef42423          	sw	a5,-24(s0)
    1e78:	02445783          	lhu	a5,36(s0)
    1e7c:	fe842703          	lw	a4,-24(s0)
    1e80:	c0f74ae3          	blt	a4,a5,1a94 <local_convolve_HWC_q7_nonsquare+0x7fc>
    1e84:	33d0006f          	j	29c0 <local_convolve_HWC_q7_nonsquare+0x1728>
    1e88:	f3442703          	lw	a4,-204(s0)
    1e8c:	4789                	li	a5,2
    1e8e:	50f71663          	bne	a4,a5,239a <local_convolve_HWC_q7_nonsquare+0x1102>
    1e92:	fe042423          	sw	zero,-24(s0)
    1e96:	a9dd                	j	238c <local_convolve_HWC_q7_nonsquare+0x10f4>
    1e98:	00c45783          	lhu	a5,12(s0)
    1e9c:	fe842583          	lw	a1,-24(s0)
    1ea0:	853e                	mv	a0,a5
    1ea2:	0f6010ef          	jal	ra,2f98 <__mulsi3>
    1ea6:	87aa                	mv	a5,a0
    1ea8:	873e                	mv	a4,a5
    1eaa:	00445783          	lhu	a5,4(s0)
    1eae:	40f707b3          	sub	a5,a4,a5
    1eb2:	eef42c23          	sw	a5,-264(s0)
    1eb6:	fe042223          	sw	zero,-28(s0)
    1eba:	a975                	j	2376 <local_convolve_HWC_q7_nonsquare+0x10de>
    1ebc:	00845783          	lhu	a5,8(s0)
    1ec0:	fe442583          	lw	a1,-28(s0)
    1ec4:	853e                	mv	a0,a5
    1ec6:	0d2010ef          	jal	ra,2f98 <__mulsi3>
    1eca:	87aa                	mv	a5,a0
    1ecc:	873e                	mv	a4,a5
    1ece:	00045783          	lhu	a5,0(s0)
    1ed2:	40f707b3          	sub	a5,a4,a5
    1ed6:	eef42a23          	sw	a5,-268(s0)
    1eda:	01445783          	lhu	a5,20(s0)
    1ede:	fff78713          	addi	a4,a5,-1
    1ee2:	ef842783          	lw	a5,-264(s0)
    1ee6:	40f707b3          	sub	a5,a4,a5
    1eea:	01445703          	lhu	a4,20(s0)
    1eee:	85ba                	mv	a1,a4
    1ef0:	853e                	mv	a0,a5
    1ef2:	0ca010ef          	jal	ra,2fbc <__divsi3>
    1ef6:	87aa                	mv	a5,a0
    1ef8:	0007d363          	bgez	a5,1efe <local_convolve_HWC_q7_nonsquare+0xc66>
    1efc:	4781                	li	a5,0
    1efe:	eef42823          	sw	a5,-272(s0)
    1f02:	01045783          	lhu	a5,16(s0)
    1f06:	fff78713          	addi	a4,a5,-1
    1f0a:	ef442783          	lw	a5,-268(s0)
    1f0e:	40f707b3          	sub	a5,a4,a5
    1f12:	01045703          	lhu	a4,16(s0)
    1f16:	85ba                	mv	a1,a4
    1f18:	853e                	mv	a0,a5
    1f1a:	0a2010ef          	jal	ra,2fbc <__divsi3>
    1f1e:	87aa                	mv	a5,a0
    1f20:	0007d363          	bgez	a5,1f26 <local_convolve_HWC_q7_nonsquare+0xc8e>
    1f24:	4781                	li	a5,0
    1f26:	eef42623          	sw	a5,-276(s0)
    1f2a:	e5845703          	lhu	a4,-424(s0)
    1f2e:	ef842783          	lw	a5,-264(s0)
    1f32:	8f1d                	sub	a4,a4,a5
    1f34:	01445783          	lhu	a5,20(s0)
    1f38:	17fd                	addi	a5,a5,-1
    1f3a:	97ba                	add	a5,a5,a4
    1f3c:	01445703          	lhu	a4,20(s0)
    1f40:	85ba                	mv	a1,a4
    1f42:	853e                	mv	a0,a5
    1f44:	078010ef          	jal	ra,2fbc <__divsi3>
    1f48:	87aa                	mv	a5,a0
    1f4a:	e4c45703          	lhu	a4,-436(s0)
    1f4e:	00f75363          	bge	a4,a5,1f54 <local_convolve_HWC_q7_nonsquare+0xcbc>
    1f52:	87ba                	mv	a5,a4
    1f54:	eef42423          	sw	a5,-280(s0)
    1f58:	e5a45703          	lhu	a4,-422(s0)
    1f5c:	ef442783          	lw	a5,-268(s0)
    1f60:	8f1d                	sub	a4,a4,a5
    1f62:	01045783          	lhu	a5,16(s0)
    1f66:	17fd                	addi	a5,a5,-1
    1f68:	97ba                	add	a5,a5,a4
    1f6a:	01045703          	lhu	a4,16(s0)
    1f6e:	85ba                	mv	a1,a4
    1f70:	853e                	mv	a0,a5
    1f72:	04a010ef          	jal	ra,2fbc <__divsi3>
    1f76:	87aa                	mv	a5,a0
    1f78:	e4e45703          	lhu	a4,-434(s0)
    1f7c:	00f75363          	bge	a4,a5,1f82 <local_convolve_HWC_q7_nonsquare+0xcea>
    1f80:	87ba                	mv	a5,a4
    1f82:	eef42223          	sw	a5,-284(s0)
    1f86:	e5445783          	lhu	a5,-428(s0)
    1f8a:	17f9                	addi	a5,a5,-2
    1f8c:	4c18                	lw	a4,24(s0)
    1f8e:	97ba                	add	a5,a5,a4
    1f90:	00078783          	lb	a5,0(a5)
    1f94:	fcf42e23          	sw	a5,-36(s0)
    1f98:	e5445783          	lhu	a5,-428(s0)
    1f9c:	17fd                	addi	a5,a5,-1
    1f9e:	4c18                	lw	a4,24(s0)
    1fa0:	97ba                	add	a5,a5,a4
    1fa2:	00078783          	lb	a5,0(a5)
    1fa6:	fcf42c23          	sw	a5,-40(s0)
    1faa:	fc042a23          	sw	zero,-44(s0)
    1fae:	fc042823          	sw	zero,-48(s0)
    1fb2:	ef042783          	lw	a5,-272(s0)
    1fb6:	fef42023          	sw	a5,-32(s0)
    1fba:	a60d                	j	22dc <local_convolve_HWC_q7_nonsquare+0x1044>
    1fbc:	00c45783          	lhu	a5,12(s0)
    1fc0:	fe842583          	lw	a1,-24(s0)
    1fc4:	853e                	mv	a0,a5
    1fc6:	7d3000ef          	jal	ra,2f98 <__mulsi3>
    1fca:	87aa                	mv	a5,a0
    1fcc:	84be                	mv	s1,a5
    1fce:	01445783          	lhu	a5,20(s0)
    1fd2:	fe042583          	lw	a1,-32(s0)
    1fd6:	853e                	mv	a0,a5
    1fd8:	7c1000ef          	jal	ra,2f98 <__mulsi3>
    1fdc:	87aa                	mv	a5,a0
    1fde:	00f48733          	add	a4,s1,a5
    1fe2:	00445783          	lhu	a5,4(s0)
    1fe6:	40f707b3          	sub	a5,a4,a5
    1fea:	f8f42023          	sw	a5,-128(s0)
    1fee:	00845783          	lhu	a5,8(s0)
    1ff2:	fe442583          	lw	a1,-28(s0)
    1ff6:	853e                	mv	a0,a5
    1ff8:	7a1000ef          	jal	ra,2f98 <__mulsi3>
    1ffc:	87aa                	mv	a5,a0
    1ffe:	873e                	mv	a4,a5
    2000:	eec42783          	lw	a5,-276(s0)
    2004:	973e                	add	a4,a4,a5
    2006:	00045783          	lhu	a5,0(s0)
    200a:	40f707b3          	sub	a5,a4,a5
    200e:	f6f42e23          	sw	a5,-132(s0)
    2012:	ee442703          	lw	a4,-284(s0)
    2016:	eec42783          	lw	a5,-276(s0)
    201a:	40f707b3          	sub	a5,a4,a5
    201e:	e5645703          	lhu	a4,-426(s0)
    2022:	85ba                	mv	a1,a4
    2024:	853e                	mv	a0,a5
    2026:	773000ef          	jal	ra,2f98 <__mulsi3>
    202a:	87aa                	mv	a5,a0
    202c:	eef42023          	sw	a5,-288(s0)
    2030:	e5a45783          	lhu	a5,-422(s0)
    2034:	f8042583          	lw	a1,-128(s0)
    2038:	853e                	mv	a0,a5
    203a:	75f000ef          	jal	ra,2f98 <__mulsi3>
    203e:	87aa                	mv	a5,a0
    2040:	873e                	mv	a4,a5
    2042:	f7c42783          	lw	a5,-132(s0)
    2046:	97ba                	add	a5,a5,a4
    2048:	e5645703          	lhu	a4,-426(s0)
    204c:	85ba                	mv	a1,a4
    204e:	853e                	mv	a0,a5
    2050:	749000ef          	jal	ra,2f98 <__mulsi3>
    2054:	87aa                	mv	a5,a0
    2056:	fcf42623          	sw	a5,-52(s0)
    205a:	e5445783          	lhu	a5,-428(s0)
    205e:	17f9                	addi	a5,a5,-2
    2060:	e5645703          	lhu	a4,-426(s0)
    2064:	85ba                	mv	a1,a4
    2066:	853e                	mv	a0,a5
    2068:	731000ef          	jal	ra,2f98 <__mulsi3>
    206c:	87aa                	mv	a5,a0
    206e:	873e                	mv	a4,a5
    2070:	e4c45783          	lhu	a5,-436(s0)
    2074:	85be                	mv	a1,a5
    2076:	853a                	mv	a0,a4
    2078:	721000ef          	jal	ra,2f98 <__mulsi3>
    207c:	87aa                	mv	a5,a0
    207e:	873e                	mv	a4,a5
    2080:	e4e45783          	lhu	a5,-434(s0)
    2084:	85be                	mv	a1,a5
    2086:	853a                	mv	a0,a4
    2088:	711000ef          	jal	ra,2f98 <__mulsi3>
    208c:	87aa                	mv	a5,a0
    208e:	84be                	mv	s1,a5
    2090:	e4e45783          	lhu	a5,-434(s0)
    2094:	fe042583          	lw	a1,-32(s0)
    2098:	853e                	mv	a0,a5
    209a:	6ff000ef          	jal	ra,2f98 <__mulsi3>
    209e:	87aa                	mv	a5,a0
    20a0:	873e                	mv	a4,a5
    20a2:	eec42783          	lw	a5,-276(s0)
    20a6:	97ba                	add	a5,a5,a4
    20a8:	e5645703          	lhu	a4,-426(s0)
    20ac:	85ba                	mv	a1,a4
    20ae:	853e                	mv	a0,a5
    20b0:	6e9000ef          	jal	ra,2f98 <__mulsi3>
    20b4:	87aa                	mv	a5,a0
    20b6:	97a6                	add	a5,a5,s1
    20b8:	fcf42423          	sw	a5,-56(s0)
    20bc:	e5445783          	lhu	a5,-428(s0)
    20c0:	17fd                	addi	a5,a5,-1
    20c2:	e5645703          	lhu	a4,-426(s0)
    20c6:	85ba                	mv	a1,a4
    20c8:	853e                	mv	a0,a5
    20ca:	6cf000ef          	jal	ra,2f98 <__mulsi3>
    20ce:	87aa                	mv	a5,a0
    20d0:	873e                	mv	a4,a5
    20d2:	e4c45783          	lhu	a5,-436(s0)
    20d6:	85be                	mv	a1,a5
    20d8:	853a                	mv	a0,a4
    20da:	6bf000ef          	jal	ra,2f98 <__mulsi3>
    20de:	87aa                	mv	a5,a0
    20e0:	873e                	mv	a4,a5
    20e2:	e4e45783          	lhu	a5,-434(s0)
    20e6:	85be                	mv	a1,a5
    20e8:	853a                	mv	a0,a4
    20ea:	6af000ef          	jal	ra,2f98 <__mulsi3>
    20ee:	87aa                	mv	a5,a0
    20f0:	84be                	mv	s1,a5
    20f2:	e4e45783          	lhu	a5,-434(s0)
    20f6:	fe042583          	lw	a1,-32(s0)
    20fa:	853e                	mv	a0,a5
    20fc:	69d000ef          	jal	ra,2f98 <__mulsi3>
    2100:	87aa                	mv	a5,a0
    2102:	873e                	mv	a4,a5
    2104:	eec42783          	lw	a5,-276(s0)
    2108:	97ba                	add	a5,a5,a4
    210a:	e5645703          	lhu	a4,-426(s0)
    210e:	85ba                	mv	a1,a4
    2110:	853e                	mv	a0,a5
    2112:	687000ef          	jal	ra,2f98 <__mulsi3>
    2116:	87aa                	mv	a5,a0
    2118:	97a6                	add	a5,a5,s1
    211a:	faf42823          	sw	a5,-80(s0)
    211e:	fcc42783          	lw	a5,-52(s0)
    2122:	e5c42703          	lw	a4,-420(s0)
    2126:	97ba                	add	a5,a5,a4
    2128:	439c                	lw	a5,0(a5)
    212a:	ecf42e23          	sw	a5,-292(s0)
    212e:	fc842783          	lw	a5,-56(s0)
    2132:	e5042703          	lw	a4,-432(s0)
    2136:	97ba                	add	a5,a5,a4
    2138:	439c                	lw	a5,0(a5)
    213a:	ecf42c23          	sw	a5,-296(s0)
    213e:	fb042783          	lw	a5,-80(s0)
    2142:	e5042703          	lw	a4,-432(s0)
    2146:	97ba                	add	a5,a5,a4
    2148:	439c                	lw	a5,0(a5)
    214a:	ecf42a23          	sw	a5,-300(s0)
    214e:	fdc42583          	lw	a1,-36(s0)
    2152:	fd842603          	lw	a2,-40(s0)
    2156:	fd442683          	lw	a3,-44(s0)
    215a:	fd042703          	lw	a4,-48(s0)
    215e:	edc42783          	lw	a5,-292(s0)
    2162:	ed842503          	lw	a0,-296(s0)
    2166:	ed442803          	lw	a6,-300(s0)
    216a:	c202                	sw	zero,4(sp)
    216c:	c002                	sw	zero,0(sp)
    216e:	88c2                	mv	a7,a6
    2170:	882a                	mv	a6,a0
    2172:	4511                	li	a0,4
    2174:	f71fe0ef          	jal	ra,10e4 <ML_ACC>
    2178:	814ff0ef          	jal	ra,118c <read_out0>
    217c:	fca42e23          	sw	a0,-36(s0)
    2180:	824ff0ef          	jal	ra,11a4 <read_out1>
    2184:	fca42c23          	sw	a0,-40(s0)
    2188:	4785                	li	a5,1
    218a:	faf42623          	sw	a5,-84(s0)
    218e:	a851                	j	2222 <local_convolve_HWC_q7_nonsquare+0xf8a>
    2190:	fcc42783          	lw	a5,-52(s0)
    2194:	0791                	addi	a5,a5,4
    2196:	fcf42623          	sw	a5,-52(s0)
    219a:	fc842783          	lw	a5,-56(s0)
    219e:	0791                	addi	a5,a5,4
    21a0:	fcf42423          	sw	a5,-56(s0)
    21a4:	fb042783          	lw	a5,-80(s0)
    21a8:	0791                	addi	a5,a5,4
    21aa:	faf42823          	sw	a5,-80(s0)
    21ae:	fcc42783          	lw	a5,-52(s0)
    21b2:	e5c42703          	lw	a4,-420(s0)
    21b6:	97ba                	add	a5,a5,a4
    21b8:	439c                	lw	a5,0(a5)
    21ba:	ecf42823          	sw	a5,-304(s0)
    21be:	fc842783          	lw	a5,-56(s0)
    21c2:	e5042703          	lw	a4,-432(s0)
    21c6:	97ba                	add	a5,a5,a4
    21c8:	439c                	lw	a5,0(a5)
    21ca:	ecf42623          	sw	a5,-308(s0)
    21ce:	fb042783          	lw	a5,-80(s0)
    21d2:	e5042703          	lw	a4,-432(s0)
    21d6:	97ba                	add	a5,a5,a4
    21d8:	439c                	lw	a5,0(a5)
    21da:	ecf42423          	sw	a5,-312(s0)
    21de:	fdc42583          	lw	a1,-36(s0)
    21e2:	fd842603          	lw	a2,-40(s0)
    21e6:	fd442683          	lw	a3,-44(s0)
    21ea:	fd042703          	lw	a4,-48(s0)
    21ee:	ed042783          	lw	a5,-304(s0)
    21f2:	ecc42503          	lw	a0,-308(s0)
    21f6:	ec842803          	lw	a6,-312(s0)
    21fa:	c202                	sw	zero,4(sp)
    21fc:	c002                	sw	zero,0(sp)
    21fe:	88c2                	mv	a7,a6
    2200:	882a                	mv	a6,a0
    2202:	4511                	li	a0,4
    2204:	ee1fe0ef          	jal	ra,10e4 <ML_ACC>
    2208:	f85fe0ef          	jal	ra,118c <read_out0>
    220c:	fca42e23          	sw	a0,-36(s0)
    2210:	f95fe0ef          	jal	ra,11a4 <read_out1>
    2214:	fca42c23          	sw	a0,-40(s0)
    2218:	fac42783          	lw	a5,-84(s0)
    221c:	0785                	addi	a5,a5,1
    221e:	faf42623          	sw	a5,-84(s0)
    2222:	ee042783          	lw	a5,-288(s0)
    2226:	41f7d713          	srai	a4,a5,0x1f
    222a:	8b0d                	andi	a4,a4,3
    222c:	97ba                	add	a5,a5,a4
    222e:	8789                	srai	a5,a5,0x2
    2230:	873e                	mv	a4,a5
    2232:	fac42783          	lw	a5,-84(s0)
    2236:	f4e7cde3          	blt	a5,a4,2190 <local_convolve_HWC_q7_nonsquare+0xef8>
    223a:	ee042783          	lw	a5,-288(s0)
    223e:	8b8d                	andi	a5,a5,3
    2240:	ecf42223          	sw	a5,-316(s0)
    2244:	ec442783          	lw	a5,-316(s0)
    2248:	08f05563          	blez	a5,22d2 <local_convolve_HWC_q7_nonsquare+0x103a>
    224c:	fcc42783          	lw	a5,-52(s0)
    2250:	0791                	addi	a5,a5,4
    2252:	fcf42623          	sw	a5,-52(s0)
    2256:	fc842783          	lw	a5,-56(s0)
    225a:	0791                	addi	a5,a5,4
    225c:	fcf42423          	sw	a5,-56(s0)
    2260:	fb042783          	lw	a5,-80(s0)
    2264:	0791                	addi	a5,a5,4
    2266:	faf42823          	sw	a5,-80(s0)
    226a:	fcc42783          	lw	a5,-52(s0)
    226e:	e5c42703          	lw	a4,-420(s0)
    2272:	97ba                	add	a5,a5,a4
    2274:	439c                	lw	a5,0(a5)
    2276:	ecf42023          	sw	a5,-320(s0)
    227a:	fc842783          	lw	a5,-56(s0)
    227e:	e5042703          	lw	a4,-432(s0)
    2282:	97ba                	add	a5,a5,a4
    2284:	439c                	lw	a5,0(a5)
    2286:	eaf42e23          	sw	a5,-324(s0)
    228a:	fb042783          	lw	a5,-80(s0)
    228e:	e5042703          	lw	a4,-432(s0)
    2292:	97ba                	add	a5,a5,a4
    2294:	439c                	lw	a5,0(a5)
    2296:	eaf42c23          	sw	a5,-328(s0)
    229a:	ec442503          	lw	a0,-316(s0)
    229e:	fdc42583          	lw	a1,-36(s0)
    22a2:	fd842603          	lw	a2,-40(s0)
    22a6:	fd442683          	lw	a3,-44(s0)
    22aa:	fd042703          	lw	a4,-48(s0)
    22ae:	ec042783          	lw	a5,-320(s0)
    22b2:	ebc42803          	lw	a6,-324(s0)
    22b6:	eb842883          	lw	a7,-328(s0)
    22ba:	c202                	sw	zero,4(sp)
    22bc:	c002                	sw	zero,0(sp)
    22be:	e27fe0ef          	jal	ra,10e4 <ML_ACC>
    22c2:	ecbfe0ef          	jal	ra,118c <read_out0>
    22c6:	fca42e23          	sw	a0,-36(s0)
    22ca:	edbfe0ef          	jal	ra,11a4 <read_out1>
    22ce:	fca42c23          	sw	a0,-40(s0)
    22d2:	fe042783          	lw	a5,-32(s0)
    22d6:	0785                	addi	a5,a5,1
    22d8:	fef42023          	sw	a5,-32(s0)
    22dc:	fe042703          	lw	a4,-32(s0)
    22e0:	ee842783          	lw	a5,-280(s0)
    22e4:	ccf74ce3          	blt	a4,a5,1fbc <local_convolve_HWC_q7_nonsquare+0xd24>
    22e8:	e5445783          	lhu	a5,-428(s0)
    22ec:	ffe78493          	addi	s1,a5,-2
    22f0:	02045783          	lhu	a5,32(s0)
    22f4:	fe842583          	lw	a1,-24(s0)
    22f8:	853e                	mv	a0,a5
    22fa:	49f000ef          	jal	ra,2f98 <__mulsi3>
    22fe:	87aa                	mv	a5,a0
    2300:	873e                	mv	a4,a5
    2302:	fe442783          	lw	a5,-28(s0)
    2306:	97ba                	add	a5,a5,a4
    2308:	e5445703          	lhu	a4,-428(s0)
    230c:	85ba                	mv	a1,a4
    230e:	853e                	mv	a0,a5
    2310:	489000ef          	jal	ra,2f98 <__mulsi3>
    2314:	87aa                	mv	a5,a0
    2316:	97a6                	add	a5,a5,s1
    2318:	873e                	mv	a4,a5
    231a:	4c5c                	lw	a5,28(s0)
    231c:	97ba                	add	a5,a5,a4
    231e:	fdc42703          	lw	a4,-36(s0)
    2322:	0762                	slli	a4,a4,0x18
    2324:	8761                	srai	a4,a4,0x18
    2326:	00e78023          	sb	a4,0(a5)
    232a:	e5445783          	lhu	a5,-428(s0)
    232e:	fff78493          	addi	s1,a5,-1
    2332:	02045783          	lhu	a5,32(s0)
    2336:	fe842583          	lw	a1,-24(s0)
    233a:	853e                	mv	a0,a5
    233c:	45d000ef          	jal	ra,2f98 <__mulsi3>
    2340:	87aa                	mv	a5,a0
    2342:	873e                	mv	a4,a5
    2344:	fe442783          	lw	a5,-28(s0)
    2348:	97ba                	add	a5,a5,a4
    234a:	e5445703          	lhu	a4,-428(s0)
    234e:	85ba                	mv	a1,a4
    2350:	853e                	mv	a0,a5
    2352:	447000ef          	jal	ra,2f98 <__mulsi3>
    2356:	87aa                	mv	a5,a0
    2358:	97a6                	add	a5,a5,s1
    235a:	873e                	mv	a4,a5
    235c:	4c5c                	lw	a5,28(s0)
    235e:	97ba                	add	a5,a5,a4
    2360:	fd842703          	lw	a4,-40(s0)
    2364:	0762                	slli	a4,a4,0x18
    2366:	8761                	srai	a4,a4,0x18
    2368:	00e78023          	sb	a4,0(a5)
    236c:	fe442783          	lw	a5,-28(s0)
    2370:	0785                	addi	a5,a5,1
    2372:	fef42223          	sw	a5,-28(s0)
    2376:	02045783          	lhu	a5,32(s0)
    237a:	fe442703          	lw	a4,-28(s0)
    237e:	b2f74fe3          	blt	a4,a5,1ebc <local_convolve_HWC_q7_nonsquare+0xc24>
    2382:	fe842783          	lw	a5,-24(s0)
    2386:	0785                	addi	a5,a5,1
    2388:	fef42423          	sw	a5,-24(s0)
    238c:	02445783          	lhu	a5,36(s0)
    2390:	fe842703          	lw	a4,-24(s0)
    2394:	b0f742e3          	blt	a4,a5,1e98 <local_convolve_HWC_q7_nonsquare+0xc00>
    2398:	a525                	j	29c0 <local_convolve_HWC_q7_nonsquare+0x1728>
    239a:	f3442703          	lw	a4,-204(s0)
    239e:	478d                	li	a5,3
    23a0:	62f71063          	bne	a4,a5,29c0 <local_convolve_HWC_q7_nonsquare+0x1728>
    23a4:	fe042423          	sw	zero,-24(s0)
    23a8:	a531                	j	29b4 <local_convolve_HWC_q7_nonsquare+0x171c>
    23aa:	00c45783          	lhu	a5,12(s0)
    23ae:	fe842583          	lw	a1,-24(s0)
    23b2:	853e                	mv	a0,a5
    23b4:	3e5000ef          	jal	ra,2f98 <__mulsi3>
    23b8:	87aa                	mv	a5,a0
    23ba:	873e                	mv	a4,a5
    23bc:	00445783          	lhu	a5,4(s0)
    23c0:	40f707b3          	sub	a5,a4,a5
    23c4:	eaf42a23          	sw	a5,-332(s0)
    23c8:	fe042223          	sw	zero,-28(s0)
    23cc:	abc9                	j	299e <local_convolve_HWC_q7_nonsquare+0x1706>
    23ce:	00845783          	lhu	a5,8(s0)
    23d2:	fe442583          	lw	a1,-28(s0)
    23d6:	853e                	mv	a0,a5
    23d8:	3c1000ef          	jal	ra,2f98 <__mulsi3>
    23dc:	87aa                	mv	a5,a0
    23de:	873e                	mv	a4,a5
    23e0:	00045783          	lhu	a5,0(s0)
    23e4:	40f707b3          	sub	a5,a4,a5
    23e8:	eaf42823          	sw	a5,-336(s0)
    23ec:	01445783          	lhu	a5,20(s0)
    23f0:	fff78713          	addi	a4,a5,-1
    23f4:	eb442783          	lw	a5,-332(s0)
    23f8:	40f707b3          	sub	a5,a4,a5
    23fc:	01445703          	lhu	a4,20(s0)
    2400:	85ba                	mv	a1,a4
    2402:	853e                	mv	a0,a5
    2404:	3b9000ef          	jal	ra,2fbc <__divsi3>
    2408:	87aa                	mv	a5,a0
    240a:	0007d363          	bgez	a5,2410 <local_convolve_HWC_q7_nonsquare+0x1178>
    240e:	4781                	li	a5,0
    2410:	eaf42623          	sw	a5,-340(s0)
    2414:	01045783          	lhu	a5,16(s0)
    2418:	fff78713          	addi	a4,a5,-1
    241c:	eb042783          	lw	a5,-336(s0)
    2420:	40f707b3          	sub	a5,a4,a5
    2424:	01045703          	lhu	a4,16(s0)
    2428:	85ba                	mv	a1,a4
    242a:	853e                	mv	a0,a5
    242c:	391000ef          	jal	ra,2fbc <__divsi3>
    2430:	87aa                	mv	a5,a0
    2432:	0007d363          	bgez	a5,2438 <local_convolve_HWC_q7_nonsquare+0x11a0>
    2436:	4781                	li	a5,0
    2438:	eaf42423          	sw	a5,-344(s0)
    243c:	e5845703          	lhu	a4,-424(s0)
    2440:	eb442783          	lw	a5,-332(s0)
    2444:	8f1d                	sub	a4,a4,a5
    2446:	01445783          	lhu	a5,20(s0)
    244a:	17fd                	addi	a5,a5,-1
    244c:	97ba                	add	a5,a5,a4
    244e:	01445703          	lhu	a4,20(s0)
    2452:	85ba                	mv	a1,a4
    2454:	853e                	mv	a0,a5
    2456:	367000ef          	jal	ra,2fbc <__divsi3>
    245a:	87aa                	mv	a5,a0
    245c:	e4c45703          	lhu	a4,-436(s0)
    2460:	00f75363          	bge	a4,a5,2466 <local_convolve_HWC_q7_nonsquare+0x11ce>
    2464:	87ba                	mv	a5,a4
    2466:	eaf42223          	sw	a5,-348(s0)
    246a:	e5a45703          	lhu	a4,-422(s0)
    246e:	eb042783          	lw	a5,-336(s0)
    2472:	8f1d                	sub	a4,a4,a5
    2474:	01045783          	lhu	a5,16(s0)
    2478:	17fd                	addi	a5,a5,-1
    247a:	97ba                	add	a5,a5,a4
    247c:	01045703          	lhu	a4,16(s0)
    2480:	85ba                	mv	a1,a4
    2482:	853e                	mv	a0,a5
    2484:	339000ef          	jal	ra,2fbc <__divsi3>
    2488:	87aa                	mv	a5,a0
    248a:	e4e45703          	lhu	a4,-434(s0)
    248e:	00f75363          	bge	a4,a5,2494 <local_convolve_HWC_q7_nonsquare+0x11fc>
    2492:	87ba                	mv	a5,a4
    2494:	eaf42023          	sw	a5,-352(s0)
    2498:	e5445783          	lhu	a5,-428(s0)
    249c:	17f5                	addi	a5,a5,-3
    249e:	4c18                	lw	a4,24(s0)
    24a0:	97ba                	add	a5,a5,a4
    24a2:	00078783          	lb	a5,0(a5)
    24a6:	fcf42e23          	sw	a5,-36(s0)
    24aa:	e5445783          	lhu	a5,-428(s0)
    24ae:	17f9                	addi	a5,a5,-2
    24b0:	4c18                	lw	a4,24(s0)
    24b2:	97ba                	add	a5,a5,a4
    24b4:	00078783          	lb	a5,0(a5)
    24b8:	fcf42c23          	sw	a5,-40(s0)
    24bc:	e5445783          	lhu	a5,-428(s0)
    24c0:	17fd                	addi	a5,a5,-1
    24c2:	4c18                	lw	a4,24(s0)
    24c4:	97ba                	add	a5,a5,a4
    24c6:	00078783          	lb	a5,0(a5)
    24ca:	fcf42a23          	sw	a5,-44(s0)
    24ce:	fc042823          	sw	zero,-48(s0)
    24d2:	eac42783          	lw	a5,-340(s0)
    24d6:	fef42023          	sw	a5,-32(s0)
    24da:	a6e5                	j	28c2 <local_convolve_HWC_q7_nonsquare+0x162a>
    24dc:	00c45783          	lhu	a5,12(s0)
    24e0:	fe842583          	lw	a1,-24(s0)
    24e4:	853e                	mv	a0,a5
    24e6:	2b3000ef          	jal	ra,2f98 <__mulsi3>
    24ea:	87aa                	mv	a5,a0
    24ec:	84be                	mv	s1,a5
    24ee:	01445783          	lhu	a5,20(s0)
    24f2:	fe042583          	lw	a1,-32(s0)
    24f6:	853e                	mv	a0,a5
    24f8:	2a1000ef          	jal	ra,2f98 <__mulsi3>
    24fc:	87aa                	mv	a5,a0
    24fe:	00f48733          	add	a4,s1,a5
    2502:	00445783          	lhu	a5,4(s0)
    2506:	40f707b3          	sub	a5,a4,a5
    250a:	f8f42023          	sw	a5,-128(s0)
    250e:	00845783          	lhu	a5,8(s0)
    2512:	fe442583          	lw	a1,-28(s0)
    2516:	853e                	mv	a0,a5
    2518:	281000ef          	jal	ra,2f98 <__mulsi3>
    251c:	87aa                	mv	a5,a0
    251e:	873e                	mv	a4,a5
    2520:	ea842783          	lw	a5,-344(s0)
    2524:	973e                	add	a4,a4,a5
    2526:	00045783          	lhu	a5,0(s0)
    252a:	40f707b3          	sub	a5,a4,a5
    252e:	f6f42e23          	sw	a5,-132(s0)
    2532:	ea042703          	lw	a4,-352(s0)
    2536:	ea842783          	lw	a5,-344(s0)
    253a:	40f707b3          	sub	a5,a4,a5
    253e:	e5645703          	lhu	a4,-426(s0)
    2542:	85ba                	mv	a1,a4
    2544:	853e                	mv	a0,a5
    2546:	253000ef          	jal	ra,2f98 <__mulsi3>
    254a:	87aa                	mv	a5,a0
    254c:	e8f42e23          	sw	a5,-356(s0)
    2550:	e5a45783          	lhu	a5,-422(s0)
    2554:	f8042583          	lw	a1,-128(s0)
    2558:	853e                	mv	a0,a5
    255a:	23f000ef          	jal	ra,2f98 <__mulsi3>
    255e:	87aa                	mv	a5,a0
    2560:	873e                	mv	a4,a5
    2562:	f7c42783          	lw	a5,-132(s0)
    2566:	97ba                	add	a5,a5,a4
    2568:	e5645703          	lhu	a4,-426(s0)
    256c:	85ba                	mv	a1,a4
    256e:	853e                	mv	a0,a5
    2570:	229000ef          	jal	ra,2f98 <__mulsi3>
    2574:	87aa                	mv	a5,a0
    2576:	fcf42623          	sw	a5,-52(s0)
    257a:	e5445783          	lhu	a5,-428(s0)
    257e:	17f5                	addi	a5,a5,-3
    2580:	e5645703          	lhu	a4,-426(s0)
    2584:	85ba                	mv	a1,a4
    2586:	853e                	mv	a0,a5
    2588:	211000ef          	jal	ra,2f98 <__mulsi3>
    258c:	87aa                	mv	a5,a0
    258e:	873e                	mv	a4,a5
    2590:	e4c45783          	lhu	a5,-436(s0)
    2594:	85be                	mv	a1,a5
    2596:	853a                	mv	a0,a4
    2598:	201000ef          	jal	ra,2f98 <__mulsi3>
    259c:	87aa                	mv	a5,a0
    259e:	873e                	mv	a4,a5
    25a0:	e4e45783          	lhu	a5,-434(s0)
    25a4:	85be                	mv	a1,a5
    25a6:	853a                	mv	a0,a4
    25a8:	1f1000ef          	jal	ra,2f98 <__mulsi3>
    25ac:	87aa                	mv	a5,a0
    25ae:	84be                	mv	s1,a5
    25b0:	e4e45783          	lhu	a5,-434(s0)
    25b4:	fe042583          	lw	a1,-32(s0)
    25b8:	853e                	mv	a0,a5
    25ba:	1df000ef          	jal	ra,2f98 <__mulsi3>
    25be:	87aa                	mv	a5,a0
    25c0:	873e                	mv	a4,a5
    25c2:	ea842783          	lw	a5,-344(s0)
    25c6:	97ba                	add	a5,a5,a4
    25c8:	e5645703          	lhu	a4,-426(s0)
    25cc:	85ba                	mv	a1,a4
    25ce:	853e                	mv	a0,a5
    25d0:	1c9000ef          	jal	ra,2f98 <__mulsi3>
    25d4:	87aa                	mv	a5,a0
    25d6:	97a6                	add	a5,a5,s1
    25d8:	fcf42423          	sw	a5,-56(s0)
    25dc:	e5445783          	lhu	a5,-428(s0)
    25e0:	17f9                	addi	a5,a5,-2
    25e2:	e5645703          	lhu	a4,-426(s0)
    25e6:	85ba                	mv	a1,a4
    25e8:	853e                	mv	a0,a5
    25ea:	1af000ef          	jal	ra,2f98 <__mulsi3>
    25ee:	87aa                	mv	a5,a0
    25f0:	873e                	mv	a4,a5
    25f2:	e4c45783          	lhu	a5,-436(s0)
    25f6:	85be                	mv	a1,a5
    25f8:	853a                	mv	a0,a4
    25fa:	19f000ef          	jal	ra,2f98 <__mulsi3>
    25fe:	87aa                	mv	a5,a0
    2600:	873e                	mv	a4,a5
    2602:	e4e45783          	lhu	a5,-434(s0)
    2606:	85be                	mv	a1,a5
    2608:	853a                	mv	a0,a4
    260a:	18f000ef          	jal	ra,2f98 <__mulsi3>
    260e:	87aa                	mv	a5,a0
    2610:	84be                	mv	s1,a5
    2612:	e4e45783          	lhu	a5,-434(s0)
    2616:	fe042583          	lw	a1,-32(s0)
    261a:	853e                	mv	a0,a5
    261c:	17d000ef          	jal	ra,2f98 <__mulsi3>
    2620:	87aa                	mv	a5,a0
    2622:	873e                	mv	a4,a5
    2624:	ea842783          	lw	a5,-344(s0)
    2628:	97ba                	add	a5,a5,a4
    262a:	e5645703          	lhu	a4,-426(s0)
    262e:	85ba                	mv	a1,a4
    2630:	853e                	mv	a0,a5
    2632:	167000ef          	jal	ra,2f98 <__mulsi3>
    2636:	87aa                	mv	a5,a0
    2638:	97a6                	add	a5,a5,s1
    263a:	faf42423          	sw	a5,-88(s0)
    263e:	e5445783          	lhu	a5,-428(s0)
    2642:	17fd                	addi	a5,a5,-1
    2644:	e5645703          	lhu	a4,-426(s0)
    2648:	85ba                	mv	a1,a4
    264a:	853e                	mv	a0,a5
    264c:	14d000ef          	jal	ra,2f98 <__mulsi3>
    2650:	87aa                	mv	a5,a0
    2652:	873e                	mv	a4,a5
    2654:	e4c45783          	lhu	a5,-436(s0)
    2658:	85be                	mv	a1,a5
    265a:	853a                	mv	a0,a4
    265c:	13d000ef          	jal	ra,2f98 <__mulsi3>
    2660:	87aa                	mv	a5,a0
    2662:	873e                	mv	a4,a5
    2664:	e4e45783          	lhu	a5,-434(s0)
    2668:	85be                	mv	a1,a5
    266a:	853a                	mv	a0,a4
    266c:	12d000ef          	jal	ra,2f98 <__mulsi3>
    2670:	87aa                	mv	a5,a0
    2672:	84be                	mv	s1,a5
    2674:	e4e45783          	lhu	a5,-434(s0)
    2678:	fe042583          	lw	a1,-32(s0)
    267c:	853e                	mv	a0,a5
    267e:	11b000ef          	jal	ra,2f98 <__mulsi3>
    2682:	87aa                	mv	a5,a0
    2684:	873e                	mv	a4,a5
    2686:	ea842783          	lw	a5,-344(s0)
    268a:	97ba                	add	a5,a5,a4
    268c:	e5645703          	lhu	a4,-426(s0)
    2690:	85ba                	mv	a1,a4
    2692:	853e                	mv	a0,a5
    2694:	105000ef          	jal	ra,2f98 <__mulsi3>
    2698:	87aa                	mv	a5,a0
    269a:	97a6                	add	a5,a5,s1
    269c:	faf42223          	sw	a5,-92(s0)
    26a0:	fcc42783          	lw	a5,-52(s0)
    26a4:	e5c42703          	lw	a4,-420(s0)
    26a8:	97ba                	add	a5,a5,a4
    26aa:	439c                	lw	a5,0(a5)
    26ac:	e8f42c23          	sw	a5,-360(s0)
    26b0:	fc842783          	lw	a5,-56(s0)
    26b4:	e5042703          	lw	a4,-432(s0)
    26b8:	97ba                	add	a5,a5,a4
    26ba:	439c                	lw	a5,0(a5)
    26bc:	e8f42a23          	sw	a5,-364(s0)
    26c0:	fa842783          	lw	a5,-88(s0)
    26c4:	e5042703          	lw	a4,-432(s0)
    26c8:	97ba                	add	a5,a5,a4
    26ca:	439c                	lw	a5,0(a5)
    26cc:	e8f42823          	sw	a5,-368(s0)
    26d0:	fa442783          	lw	a5,-92(s0)
    26d4:	e5042703          	lw	a4,-432(s0)
    26d8:	97ba                	add	a5,a5,a4
    26da:	439c                	lw	a5,0(a5)
    26dc:	e8f42623          	sw	a5,-372(s0)
    26e0:	fdc42583          	lw	a1,-36(s0)
    26e4:	fd842603          	lw	a2,-40(s0)
    26e8:	fd442683          	lw	a3,-44(s0)
    26ec:	fd042703          	lw	a4,-48(s0)
    26f0:	e9842503          	lw	a0,-360(s0)
    26f4:	e9442803          	lw	a6,-364(s0)
    26f8:	e9042883          	lw	a7,-368(s0)
    26fc:	e8c42783          	lw	a5,-372(s0)
    2700:	c202                	sw	zero,4(sp)
    2702:	c03e                	sw	a5,0(sp)
    2704:	87aa                	mv	a5,a0
    2706:	4511                	li	a0,4
    2708:	9ddfe0ef          	jal	ra,10e4 <ML_ACC>
    270c:	a81fe0ef          	jal	ra,118c <read_out0>
    2710:	fca42e23          	sw	a0,-36(s0)
    2714:	a91fe0ef          	jal	ra,11a4 <read_out1>
    2718:	fca42c23          	sw	a0,-40(s0)
    271c:	aa1fe0ef          	jal	ra,11bc <read_out2>
    2720:	fca42a23          	sw	a0,-44(s0)
    2724:	4785                	li	a5,1
    2726:	faf42023          	sw	a5,-96(s0)
    272a:	a865                	j	27e2 <local_convolve_HWC_q7_nonsquare+0x154a>
    272c:	fcc42783          	lw	a5,-52(s0)
    2730:	0791                	addi	a5,a5,4
    2732:	fcf42623          	sw	a5,-52(s0)
    2736:	fc842783          	lw	a5,-56(s0)
    273a:	0791                	addi	a5,a5,4
    273c:	fcf42423          	sw	a5,-56(s0)
    2740:	fa842783          	lw	a5,-88(s0)
    2744:	0791                	addi	a5,a5,4
    2746:	faf42423          	sw	a5,-88(s0)
    274a:	fa442783          	lw	a5,-92(s0)
    274e:	0791                	addi	a5,a5,4
    2750:	faf42223          	sw	a5,-92(s0)
    2754:	fcc42783          	lw	a5,-52(s0)
    2758:	e5c42703          	lw	a4,-420(s0)
    275c:	97ba                	add	a5,a5,a4
    275e:	439c                	lw	a5,0(a5)
    2760:	e8f42423          	sw	a5,-376(s0)
    2764:	fc842783          	lw	a5,-56(s0)
    2768:	e5042703          	lw	a4,-432(s0)
    276c:	97ba                	add	a5,a5,a4
    276e:	439c                	lw	a5,0(a5)
    2770:	e8f42223          	sw	a5,-380(s0)
    2774:	fa842783          	lw	a5,-88(s0)
    2778:	e5042703          	lw	a4,-432(s0)
    277c:	97ba                	add	a5,a5,a4
    277e:	439c                	lw	a5,0(a5)
    2780:	e8f42023          	sw	a5,-384(s0)
    2784:	fa442783          	lw	a5,-92(s0)
    2788:	e5042703          	lw	a4,-432(s0)
    278c:	97ba                	add	a5,a5,a4
    278e:	439c                	lw	a5,0(a5)
    2790:	e6f42e23          	sw	a5,-388(s0)
    2794:	fdc42583          	lw	a1,-36(s0)
    2798:	fd842603          	lw	a2,-40(s0)
    279c:	fd442683          	lw	a3,-44(s0)
    27a0:	fd042703          	lw	a4,-48(s0)
    27a4:	e8842503          	lw	a0,-376(s0)
    27a8:	e8442803          	lw	a6,-380(s0)
    27ac:	e8042883          	lw	a7,-384(s0)
    27b0:	e7c42783          	lw	a5,-388(s0)
    27b4:	c202                	sw	zero,4(sp)
    27b6:	c03e                	sw	a5,0(sp)
    27b8:	87aa                	mv	a5,a0
    27ba:	4511                	li	a0,4
    27bc:	929fe0ef          	jal	ra,10e4 <ML_ACC>
    27c0:	9cdfe0ef          	jal	ra,118c <read_out0>
    27c4:	fca42e23          	sw	a0,-36(s0)
    27c8:	9ddfe0ef          	jal	ra,11a4 <read_out1>
    27cc:	fca42c23          	sw	a0,-40(s0)
    27d0:	9edfe0ef          	jal	ra,11bc <read_out2>
    27d4:	fca42a23          	sw	a0,-44(s0)
    27d8:	fa042783          	lw	a5,-96(s0)
    27dc:	0785                	addi	a5,a5,1
    27de:	faf42023          	sw	a5,-96(s0)
    27e2:	e9c42783          	lw	a5,-356(s0)
    27e6:	41f7d713          	srai	a4,a5,0x1f
    27ea:	8b0d                	andi	a4,a4,3
    27ec:	97ba                	add	a5,a5,a4
    27ee:	8789                	srai	a5,a5,0x2
    27f0:	873e                	mv	a4,a5
    27f2:	fa042783          	lw	a5,-96(s0)
    27f6:	f2e7cbe3          	blt	a5,a4,272c <local_convolve_HWC_q7_nonsquare+0x1494>
    27fa:	e9c42783          	lw	a5,-356(s0)
    27fe:	8b8d                	andi	a5,a5,3
    2800:	e6f42c23          	sw	a5,-392(s0)
    2804:	e7842783          	lw	a5,-392(s0)
    2808:	0af05863          	blez	a5,28b8 <local_convolve_HWC_q7_nonsquare+0x1620>
    280c:	fcc42783          	lw	a5,-52(s0)
    2810:	0791                	addi	a5,a5,4
    2812:	fcf42623          	sw	a5,-52(s0)
    2816:	fc842783          	lw	a5,-56(s0)
    281a:	0791                	addi	a5,a5,4
    281c:	fcf42423          	sw	a5,-56(s0)
    2820:	fa842783          	lw	a5,-88(s0)
    2824:	0791                	addi	a5,a5,4
    2826:	faf42423          	sw	a5,-88(s0)
    282a:	fa442783          	lw	a5,-92(s0)
    282e:	0791                	addi	a5,a5,4
    2830:	faf42223          	sw	a5,-92(s0)
    2834:	fcc42783          	lw	a5,-52(s0)
    2838:	e5c42703          	lw	a4,-420(s0)
    283c:	97ba                	add	a5,a5,a4
    283e:	439c                	lw	a5,0(a5)
    2840:	e6f42a23          	sw	a5,-396(s0)
    2844:	fc842783          	lw	a5,-56(s0)
    2848:	e5042703          	lw	a4,-432(s0)
    284c:	97ba                	add	a5,a5,a4
    284e:	439c                	lw	a5,0(a5)
    2850:	e6f42823          	sw	a5,-400(s0)
    2854:	fa842783          	lw	a5,-88(s0)
    2858:	e5042703          	lw	a4,-432(s0)
    285c:	97ba                	add	a5,a5,a4
    285e:	439c                	lw	a5,0(a5)
    2860:	e6f42623          	sw	a5,-404(s0)
    2864:	fa442783          	lw	a5,-92(s0)
    2868:	e5042703          	lw	a4,-432(s0)
    286c:	97ba                	add	a5,a5,a4
    286e:	439c                	lw	a5,0(a5)
    2870:	e6f42423          	sw	a5,-408(s0)
    2874:	fdc42583          	lw	a1,-36(s0)
    2878:	fd842603          	lw	a2,-40(s0)
    287c:	fd442683          	lw	a3,-44(s0)
    2880:	fd042703          	lw	a4,-48(s0)
    2884:	e7442503          	lw	a0,-396(s0)
    2888:	e7042803          	lw	a6,-400(s0)
    288c:	e6c42883          	lw	a7,-404(s0)
    2890:	e6842783          	lw	a5,-408(s0)
    2894:	c202                	sw	zero,4(sp)
    2896:	c03e                	sw	a5,0(sp)
    2898:	87aa                	mv	a5,a0
    289a:	4511                	li	a0,4
    289c:	849fe0ef          	jal	ra,10e4 <ML_ACC>
    28a0:	8edfe0ef          	jal	ra,118c <read_out0>
    28a4:	fca42e23          	sw	a0,-36(s0)
    28a8:	8fdfe0ef          	jal	ra,11a4 <read_out1>
    28ac:	fca42c23          	sw	a0,-40(s0)
    28b0:	90dfe0ef          	jal	ra,11bc <read_out2>
    28b4:	fca42a23          	sw	a0,-44(s0)
    28b8:	fe042783          	lw	a5,-32(s0)
    28bc:	0785                	addi	a5,a5,1
    28be:	fef42023          	sw	a5,-32(s0)
    28c2:	fe042703          	lw	a4,-32(s0)
    28c6:	ea442783          	lw	a5,-348(s0)
    28ca:	c0f749e3          	blt	a4,a5,24dc <local_convolve_HWC_q7_nonsquare+0x1244>
    28ce:	e5445783          	lhu	a5,-428(s0)
    28d2:	ffd78493          	addi	s1,a5,-3
    28d6:	02045783          	lhu	a5,32(s0)
    28da:	fe842583          	lw	a1,-24(s0)
    28de:	853e                	mv	a0,a5
    28e0:	6b8000ef          	jal	ra,2f98 <__mulsi3>
    28e4:	87aa                	mv	a5,a0
    28e6:	873e                	mv	a4,a5
    28e8:	fe442783          	lw	a5,-28(s0)
    28ec:	97ba                	add	a5,a5,a4
    28ee:	e5445703          	lhu	a4,-428(s0)
    28f2:	85ba                	mv	a1,a4
    28f4:	853e                	mv	a0,a5
    28f6:	6a2000ef          	jal	ra,2f98 <__mulsi3>
    28fa:	87aa                	mv	a5,a0
    28fc:	97a6                	add	a5,a5,s1
    28fe:	873e                	mv	a4,a5
    2900:	4c5c                	lw	a5,28(s0)
    2902:	97ba                	add	a5,a5,a4
    2904:	fdc42703          	lw	a4,-36(s0)
    2908:	0762                	slli	a4,a4,0x18
    290a:	8761                	srai	a4,a4,0x18
    290c:	00e78023          	sb	a4,0(a5)
    2910:	e5445783          	lhu	a5,-428(s0)
    2914:	ffe78493          	addi	s1,a5,-2
    2918:	02045783          	lhu	a5,32(s0)
    291c:	fe842583          	lw	a1,-24(s0)
    2920:	853e                	mv	a0,a5
    2922:	676000ef          	jal	ra,2f98 <__mulsi3>
    2926:	87aa                	mv	a5,a0
    2928:	873e                	mv	a4,a5
    292a:	fe442783          	lw	a5,-28(s0)
    292e:	97ba                	add	a5,a5,a4
    2930:	e5445703          	lhu	a4,-428(s0)
    2934:	85ba                	mv	a1,a4
    2936:	853e                	mv	a0,a5
    2938:	660000ef          	jal	ra,2f98 <__mulsi3>
    293c:	87aa                	mv	a5,a0
    293e:	97a6                	add	a5,a5,s1
    2940:	873e                	mv	a4,a5
    2942:	4c5c                	lw	a5,28(s0)
    2944:	97ba                	add	a5,a5,a4
    2946:	fd842703          	lw	a4,-40(s0)
    294a:	0762                	slli	a4,a4,0x18
    294c:	8761                	srai	a4,a4,0x18
    294e:	00e78023          	sb	a4,0(a5)
    2952:	e5445783          	lhu	a5,-428(s0)
    2956:	fff78493          	addi	s1,a5,-1
    295a:	02045783          	lhu	a5,32(s0)
    295e:	fe842583          	lw	a1,-24(s0)
    2962:	853e                	mv	a0,a5
    2964:	634000ef          	jal	ra,2f98 <__mulsi3>
    2968:	87aa                	mv	a5,a0
    296a:	873e                	mv	a4,a5
    296c:	fe442783          	lw	a5,-28(s0)
    2970:	97ba                	add	a5,a5,a4
    2972:	e5445703          	lhu	a4,-428(s0)
    2976:	85ba                	mv	a1,a4
    2978:	853e                	mv	a0,a5
    297a:	61e000ef          	jal	ra,2f98 <__mulsi3>
    297e:	87aa                	mv	a5,a0
    2980:	97a6                	add	a5,a5,s1
    2982:	873e                	mv	a4,a5
    2984:	4c5c                	lw	a5,28(s0)
    2986:	97ba                	add	a5,a5,a4
    2988:	fd442703          	lw	a4,-44(s0)
    298c:	0762                	slli	a4,a4,0x18
    298e:	8761                	srai	a4,a4,0x18
    2990:	00e78023          	sb	a4,0(a5)
    2994:	fe442783          	lw	a5,-28(s0)
    2998:	0785                	addi	a5,a5,1
    299a:	fef42223          	sw	a5,-28(s0)
    299e:	02045783          	lhu	a5,32(s0)
    29a2:	fe442703          	lw	a4,-28(s0)
    29a6:	a2f744e3          	blt	a4,a5,23ce <local_convolve_HWC_q7_nonsquare+0x1136>
    29aa:	fe842783          	lw	a5,-24(s0)
    29ae:	0785                	addi	a5,a5,1
    29b0:	fef42423          	sw	a5,-24(s0)
    29b4:	02445783          	lhu	a5,36(s0)
    29b8:	fe842703          	lw	a4,-24(s0)
    29bc:	9ef747e3          	blt	a4,a5,23aa <local_convolve_HWC_q7_nonsquare+0x1112>
    29c0:	0001                	nop
    29c2:	1cc12083          	lw	ra,460(sp)
    29c6:	1c812403          	lw	s0,456(sp)
    29ca:	1c412483          	lw	s1,452(sp)
    29ce:	6179                	addi	sp,sp,464
    29d0:	8082                	ret
    29d2:	0001                	nop

000029d4 <num_print>:
    29d4:	715d                	addi	sp,sp,-80
    29d6:	c686                	sw	ra,76(sp)
    29d8:	c4a2                	sw	s0,72(sp)
    29da:	0880                	addi	s0,sp,80
    29dc:	faa42e23          	sw	a0,-68(s0)
    29e0:	47a9                	li	a5,10
    29e2:	fef42223          	sw	a5,-28(s0)
    29e6:	fe042623          	sw	zero,-20(s0)
    29ea:	fc840793          	addi	a5,s0,-56
    29ee:	07cd                	addi	a5,a5,19
    29f0:	fef42023          	sw	a5,-32(s0)
    29f4:	fe042783          	lw	a5,-32(s0)
    29f8:	fef42423          	sw	a5,-24(s0)
    29fc:	fe842783          	lw	a5,-24(s0)
    2a00:	4729                	li	a4,10
    2a02:	00e78023          	sb	a4,0(a5)
    2a06:	fbc42783          	lw	a5,-68(s0)
    2a0a:	0007db63          	bgez	a5,2a20 <num_print+0x4c>
    2a0e:	fbc42783          	lw	a5,-68(s0)
    2a12:	40f007b3          	neg	a5,a5
    2a16:	faf42e23          	sw	a5,-68(s0)
    2a1a:	4785                	li	a5,1
    2a1c:	fef42623          	sw	a5,-20(s0)
    2a20:	fbc42783          	lw	a5,-68(s0)
    2a24:	fe442583          	lw	a1,-28(s0)
    2a28:	853e                	mv	a0,a5
    2a2a:	5e2000ef          	jal	ra,300c <__umodsi3>
    2a2e:	87aa                	mv	a5,a0
    2a30:	0ff7f793          	andi	a5,a5,255
    2a34:	fe842703          	lw	a4,-24(s0)
    2a38:	177d                	addi	a4,a4,-1
    2a3a:	fee42423          	sw	a4,-24(s0)
    2a3e:	03078793          	addi	a5,a5,48
    2a42:	0ff7f713          	andi	a4,a5,255
    2a46:	fe842783          	lw	a5,-24(s0)
    2a4a:	00e78023          	sb	a4,0(a5)
    2a4e:	fbc42783          	lw	a5,-68(s0)
    2a52:	fe442583          	lw	a1,-28(s0)
    2a56:	853e                	mv	a0,a5
    2a58:	56c000ef          	jal	ra,2fc4 <__udivsi3>
    2a5c:	87aa                	mv	a5,a0
    2a5e:	faf42e23          	sw	a5,-68(s0)
    2a62:	fbc42783          	lw	a5,-68(s0)
    2a66:	ffcd                	bnez	a5,2a20 <num_print+0x4c>
    2a68:	fec42783          	lw	a5,-20(s0)
    2a6c:	cf81                	beqz	a5,2a84 <num_print+0xb0>
    2a6e:	fe842783          	lw	a5,-24(s0)
    2a72:	17fd                	addi	a5,a5,-1
    2a74:	fef42423          	sw	a5,-24(s0)
    2a78:	fe842783          	lw	a5,-24(s0)
    2a7c:	02d00713          	li	a4,45
    2a80:	00e78023          	sb	a4,0(a5)
    2a84:	fe042703          	lw	a4,-32(s0)
    2a88:	fe842783          	lw	a5,-24(s0)
    2a8c:	40f707b3          	sub	a5,a4,a5
    2a90:	fcf42e23          	sw	a5,-36(s0)
    2a94:	fdc42783          	lw	a5,-36(s0)
    2a98:	0785                	addi	a5,a5,1
    2a9a:	863e                	mv	a2,a5
    2a9c:	fe842583          	lw	a1,-24(s0)
    2aa0:	4501                	li	a0,0
    2aa2:	ac3fd0ef          	jal	ra,564 <uart_puts>
    2aa6:	0001                	nop
    2aa8:	40b6                	lw	ra,76(sp)
    2aaa:	4426                	lw	s0,72(sp)
    2aac:	6161                	addi	sp,sp,80
    2aae:	8082                	ret

00002ab0 <UART0_handler>:
    2ab0:	1141                	addi	sp,sp,-16
    2ab2:	c606                	sw	ra,12(sp)
    2ab4:	c422                	sw	s0,8(sp)
    2ab6:	0800                	addi	s0,sp,16
    2ab8:	67c1                	lui	a5,0x10
    2aba:	fff78513          	addi	a0,a5,-1 # ffff <Sig_out+0xcbcb>
    2abe:	9a3fd0ef          	jal	ra,460 <gpio_write>
    2ac2:	0001                	nop
    2ac4:	40b2                	lw	ra,12(sp)
    2ac6:	4422                	lw	s0,8(sp)
    2ac8:	0141                	addi	sp,sp,16
    2aca:	8082                	ret

00002acc <UART1_handler>:
    2acc:	1141                	addi	sp,sp,-16
    2ace:	c606                	sw	ra,12(sp)
    2ad0:	c422                	sw	s0,8(sp)
    2ad2:	0800                	addi	s0,sp,16
    2ad4:	6785                	lui	a5,0x1
    2ad6:	11178513          	addi	a0,a5,273 # 1111 <ML_ACC+0x2d>
    2ada:	987fd0ef          	jal	ra,460 <gpio_write>
    2ade:	0001                	nop
    2ae0:	40b2                	lw	ra,12(sp)
    2ae2:	4422                	lw	s0,8(sp)
    2ae4:	0141                	addi	sp,sp,16
    2ae6:	8082                	ret

00002ae8 <SPI0_handler>:
    2ae8:	1141                	addi	sp,sp,-16
    2aea:	c606                	sw	ra,12(sp)
    2aec:	c422                	sw	s0,8(sp)
    2aee:	0800                	addi	s0,sp,16
    2af0:	6789                	lui	a5,0x2
    2af2:	22278513          	addi	a0,a5,546 # 2222 <local_convolve_HWC_q7_nonsquare+0xf8a>
    2af6:	96bfd0ef          	jal	ra,460 <gpio_write>
    2afa:	0001                	nop
    2afc:	40b2                	lw	ra,12(sp)
    2afe:	4422                	lw	s0,8(sp)
    2b00:	0141                	addi	sp,sp,16
    2b02:	8082                	ret

00002b04 <SPI1_handler>:
    2b04:	1141                	addi	sp,sp,-16
    2b06:	c606                	sw	ra,12(sp)
    2b08:	c422                	sw	s0,8(sp)
    2b0a:	0800                	addi	s0,sp,16
    2b0c:	678d                	lui	a5,0x3
    2b0e:	33378513          	addi	a0,a5,819 # 3333 <PWM1_CMP1+0x3>
    2b12:	94ffd0ef          	jal	ra,460 <gpio_write>
    2b16:	0001                	nop
    2b18:	40b2                	lw	ra,12(sp)
    2b1a:	4422                	lw	s0,8(sp)
    2b1c:	0141                	addi	sp,sp,16
    2b1e:	8082                	ret

00002b20 <TMR0_handler>:
    2b20:	1141                	addi	sp,sp,-16
    2b22:	c606                	sw	ra,12(sp)
    2b24:	c422                	sw	s0,8(sp)
    2b26:	0800                	addi	s0,sp,16
    2b28:	6799                	lui	a5,0x6
    2b2a:	66678513          	addi	a0,a5,1638 # 6666 <Sig_out+0x3232>
    2b2e:	933fd0ef          	jal	ra,460 <gpio_write>
    2b32:	0001                	nop
    2b34:	40b2                	lw	ra,12(sp)
    2b36:	4422                	lw	s0,8(sp)
    2b38:	0141                	addi	sp,sp,16
    2b3a:	8082                	ret

00002b3c <TMR1_handler>:
    2b3c:	1141                	addi	sp,sp,-16
    2b3e:	c606                	sw	ra,12(sp)
    2b40:	c422                	sw	s0,8(sp)
    2b42:	0800                	addi	s0,sp,16
    2b44:	679d                	lui	a5,0x7
    2b46:	77778513          	addi	a0,a5,1911 # 7777 <Sig_out+0x4343>
    2b4a:	917fd0ef          	jal	ra,460 <gpio_write>
    2b4e:	0001                	nop
    2b50:	40b2                	lw	ra,12(sp)
    2b52:	4422                	lw	s0,8(sp)
    2b54:	0141                	addi	sp,sp,16
    2b56:	8082                	ret

00002b58 <TMR2_handler>:
    2b58:	1141                	addi	sp,sp,-16
    2b5a:	c606                	sw	ra,12(sp)
    2b5c:	c422                	sw	s0,8(sp)
    2b5e:	0800                	addi	s0,sp,16
    2b60:	67a5                	lui	a5,0x9
    2b62:	88878513          	addi	a0,a5,-1912 # 8888 <Sig_out+0x5454>
    2b66:	8fbfd0ef          	jal	ra,460 <gpio_write>
    2b6a:	0001                	nop
    2b6c:	40b2                	lw	ra,12(sp)
    2b6e:	4422                	lw	s0,8(sp)
    2b70:	0141                	addi	sp,sp,16
    2b72:	8082                	ret

00002b74 <TMR3_handler>:
    2b74:	1141                	addi	sp,sp,-16
    2b76:	c606                	sw	ra,12(sp)
    2b78:	c422                	sw	s0,8(sp)
    2b7a:	0800                	addi	s0,sp,16
    2b7c:	67a9                	lui	a5,0xa
    2b7e:	99978513          	addi	a0,a5,-1639 # 9999 <Sig_out+0x6565>
    2b82:	8dffd0ef          	jal	ra,460 <gpio_write>
    2b86:	0001                	nop
    2b88:	40b2                	lw	ra,12(sp)
    2b8a:	4422                	lw	s0,8(sp)
    2b8c:	0141                	addi	sp,sp,16
    2b8e:	8082                	ret

00002b90 <WDT0_handler>:
    2b90:	1141                	addi	sp,sp,-16
    2b92:	c606                	sw	ra,12(sp)
    2b94:	c422                	sw	s0,8(sp)
    2b96:	0800                	addi	s0,sp,16
    2b98:	67ad                	lui	a5,0xb
    2b9a:	aaa78513          	addi	a0,a5,-1366 # aaaa <Sig_out+0x7676>
    2b9e:	8c3fd0ef          	jal	ra,460 <gpio_write>
    2ba2:	0001                	nop
    2ba4:	40b2                	lw	ra,12(sp)
    2ba6:	4422                	lw	s0,8(sp)
    2ba8:	0141                	addi	sp,sp,16
    2baa:	8082                	ret

00002bac <WDT1_handler>:
    2bac:	1141                	addi	sp,sp,-16
    2bae:	c606                	sw	ra,12(sp)
    2bb0:	c422                	sw	s0,8(sp)
    2bb2:	0800                	addi	s0,sp,16
    2bb4:	67b1                	lui	a5,0xc
    2bb6:	bbb78513          	addi	a0,a5,-1093 # bbbb <Sig_out+0x8787>
    2bba:	8a7fd0ef          	jal	ra,460 <gpio_write>
    2bbe:	0001                	nop
    2bc0:	40b2                	lw	ra,12(sp)
    2bc2:	4422                	lw	s0,8(sp)
    2bc4:	0141                	addi	sp,sp,16
    2bc6:	8082                	ret

00002bc8 <IRQ>:
    2bc8:	715d                	addi	sp,sp,-80
    2bca:	c686                	sw	ra,76(sp)
    2bcc:	c496                	sw	t0,72(sp)
    2bce:	c29a                	sw	t1,68(sp)
    2bd0:	c09e                	sw	t2,64(sp)
    2bd2:	de22                	sw	s0,60(sp)
    2bd4:	dc2a                	sw	a0,56(sp)
    2bd6:	da2e                	sw	a1,52(sp)
    2bd8:	d832                	sw	a2,48(sp)
    2bda:	d636                	sw	a3,44(sp)
    2bdc:	d43a                	sw	a4,40(sp)
    2bde:	d23e                	sw	a5,36(sp)
    2be0:	d042                	sw	a6,32(sp)
    2be2:	ce46                	sw	a7,28(sp)
    2be4:	cc72                	sw	t3,24(sp)
    2be6:	ca76                	sw	t4,20(sp)
    2be8:	c87a                	sw	t5,16(sp)
    2bea:	c67e                	sw	t6,12(sp)
    2bec:	0880                	addi	s0,sp,80
    2bee:	09900513          	li	a0,153
    2bf2:	86ffd0ef          	jal	ra,460 <gpio_write>
    2bf6:	0001                	nop
    2bf8:	40b6                	lw	ra,76(sp)
    2bfa:	42a6                	lw	t0,72(sp)
    2bfc:	4316                	lw	t1,68(sp)
    2bfe:	4386                	lw	t2,64(sp)
    2c00:	5472                	lw	s0,60(sp)
    2c02:	5562                	lw	a0,56(sp)
    2c04:	55d2                	lw	a1,52(sp)
    2c06:	5642                	lw	a2,48(sp)
    2c08:	56b2                	lw	a3,44(sp)
    2c0a:	5722                	lw	a4,40(sp)
    2c0c:	5792                	lw	a5,36(sp)
    2c0e:	5802                	lw	a6,32(sp)
    2c10:	48f2                	lw	a7,28(sp)
    2c12:	4e62                	lw	t3,24(sp)
    2c14:	4ed2                	lw	t4,20(sp)
    2c16:	4f42                	lw	t5,16(sp)
    2c18:	4fb2                	lw	t6,12(sp)
    2c1a:	6161                	addi	sp,sp,80
    2c1c:	30200073          	mret

00002c20 <main>:
    2c20:	710d                	addi	sp,sp,-352
    2c22:	14112e23          	sw	ra,348(sp)
    2c26:	14812c23          	sw	s0,344(sp)
    2c2a:	14912a23          	sw	s1,340(sp)
    2c2e:	15212823          	sw	s2,336(sp)
    2c32:	15312623          	sw	s3,332(sp)
    2c36:	15412423          	sw	s4,328(sp)
    2c3a:	15512223          	sw	s5,324(sp)
    2c3e:	15612023          	sw	s6,320(sp)
    2c42:	13712e23          	sw	s7,316(sp)
    2c46:	13812c23          	sw	s8,312(sp)
    2c4a:	13912a23          	sw	s9,308(sp)
    2c4e:	1280                	addi	s0,sp,352
    2c50:	4581                	li	a1,0
    2c52:	4501                	li	a0,0
    2c54:	8a5fd0ef          	jal	ra,4f8 <uart_init>
    2c58:	4581                	li	a1,0
    2c5a:	4505                	li	a0,1
    2c5c:	89dfd0ef          	jal	ra,4f8 <uart_init>
    2c60:	0ff00513          	li	a0,255
    2c64:	fdcfd0ef          	jal	ra,440 <gpio_set_dir>
    2c68:	462d                	li	a2,11
    2c6a:	678d                	lui	a5,0x3
    2c6c:	14878593          	addi	a1,a5,328 # 3148 <memcpy+0xd8>
    2c70:	4501                	li	a0,0
    2c72:	8f3fd0ef          	jal	ra,564 <uart_puts>
    2c76:	05500513          	li	a0,85
    2c7a:	fe6fd0ef          	jal	ra,460 <gpio_write>
    2c7e:	fc042423          	sw	zero,-56(s0)
    2c82:	a031                	j	2c8e <main+0x6e>
    2c84:	fc842783          	lw	a5,-56(s0)
    2c88:	0785                	addi	a5,a5,1
    2c8a:	fcf42423          	sw	a5,-56(s0)
    2c8e:	fc842703          	lw	a4,-56(s0)
    2c92:	06300793          	li	a5,99
    2c96:	fee7d7e3          	bge	a5,a4,2c84 <main+0x64>
    2c9a:	fe6fd0ef          	jal	ra,480 <gpio_read>
    2c9e:	87aa                	mv	a5,a0
    2ca0:	fcf42223          	sw	a5,-60(s0)
    2ca4:	fc442783          	lw	a5,-60(s0)
    2ca8:	4087d713          	srai	a4,a5,0x8
    2cac:	05500793          	li	a5,85
    2cb0:	00f71a63          	bne	a4,a5,2cc4 <main+0xa4>
    2cb4:	4621                	li	a2,8
    2cb6:	678d                	lui	a5,0x3
    2cb8:	15478593          	addi	a1,a5,340 # 3154 <memcpy+0xe4>
    2cbc:	4501                	li	a0,0
    2cbe:	8a7fd0ef          	jal	ra,564 <uart_puts>
    2cc2:	a801                	j	2cd2 <main+0xb2>
    2cc4:	4621                	li	a2,8
    2cc6:	678d                	lui	a5,0x3
    2cc8:	16078593          	addi	a1,a5,352 # 3160 <memcpy+0xf0>
    2ccc:	4501                	li	a0,0
    2cce:	897fd0ef          	jal	ra,564 <uart_puts>
    2cd2:	678d                	lui	a5,0x3
    2cd4:	f4440713          	addi	a4,s0,-188
    2cd8:	1a878793          	addi	a5,a5,424 # 31a8 <memcpy+0x138>
    2cdc:	04b00693          	li	a3,75
    2ce0:	8636                	mv	a2,a3
    2ce2:	85be                	mv	a1,a5
    2ce4:	853a                	mv	a0,a4
    2ce6:	2669                	jal	3070 <memcpy>
    2ce8:	4795                	li	a5,5
    2cea:	fcf41123          	sh	a5,-62(s0)
    2cee:	4795                	li	a5,5
    2cf0:	fcf41023          	sh	a5,-64(s0)
    2cf4:	478d                	li	a5,3
    2cf6:	faf41f23          	sh	a5,-66(s0)
    2cfa:	678d                	lui	a5,0x3
    2cfc:	ed840713          	addi	a4,s0,-296
    2d00:	1f478793          	addi	a5,a5,500 # 31f4 <memcpy+0x184>
    2d04:	06c00693          	li	a3,108
    2d08:	8636                	mv	a2,a3
    2d0a:	85be                	mv	a1,a5
    2d0c:	853a                	mv	a0,a4
    2d0e:	268d                	jal	3070 <memcpy>
    2d10:	4791                	li	a5,4
    2d12:	faf41e23          	sh	a5,-68(s0)
    2d16:	478d                	li	a5,3
    2d18:	faf41d23          	sh	a5,-70(s0)
    2d1c:	478d                	li	a5,3
    2d1e:	faf41c23          	sh	a5,-72(s0)
    2d22:	4785                	li	a5,1
    2d24:	faf41b23          	sh	a5,-74(s0)
    2d28:	4785                	li	a5,1
    2d2a:	faf41a23          	sh	a5,-76(s0)
    2d2e:	4789                	li	a5,2
    2d30:	faf41923          	sh	a5,-78(s0)
    2d34:	4789                	li	a5,2
    2d36:	faf41823          	sh	a5,-80(s0)
    2d3a:	4785                	li	a5,1
    2d3c:	ecf40a23          	sb	a5,-300(s0)
    2d40:	ec040aa3          	sb	zero,-299(s0)
    2d44:	ec040b23          	sb	zero,-298(s0)
    2d48:	ec040ba3          	sb	zero,-297(s0)
    2d4c:	fa041723          	sh	zero,-82(s0)
    2d50:	fa041623          	sh	zero,-84(s0)
    2d54:	4621                	li	a2,8
    2d56:	678d                	lui	a5,0x3
    2d58:	16c78593          	addi	a1,a5,364 # 316c <memcpy+0xfc>
    2d5c:	4501                	li	a0,0
    2d5e:	807fd0ef          	jal	ra,564 <uart_puts>
    2d62:	478d                	li	a5,3
    2d64:	faf41523          	sh	a5,-86(s0)
    2d68:	478d                	li	a5,3
    2d6a:	faf41423          	sh	a5,-88(s0)
    2d6e:	878a                	mv	a5,sp
    2d70:	84be                	mv	s1,a5
    2d72:	faa45783          	lhu	a5,-86(s0)
    2d76:	fa845703          	lhu	a4,-88(s0)
    2d7a:	85ba                	mv	a1,a4
    2d7c:	853e                	mv	a0,a5
    2d7e:	2c29                	jal	2f98 <__mulsi3>
    2d80:	87aa                	mv	a5,a0
    2d82:	873e                	mv	a4,a5
    2d84:	fbc45783          	lhu	a5,-68(s0)
    2d88:	85be                	mv	a1,a5
    2d8a:	853a                	mv	a0,a4
    2d8c:	2431                	jal	2f98 <__mulsi3>
    2d8e:	87aa                	mv	a5,a0
    2d90:	17fd                	addi	a5,a5,-1
    2d92:	faf42223          	sw	a5,-92(s0)
    2d96:	faa45783          	lhu	a5,-86(s0)
    2d9a:	fa845703          	lhu	a4,-88(s0)
    2d9e:	85ba                	mv	a1,a4
    2da0:	853e                	mv	a0,a5
    2da2:	2add                	jal	2f98 <__mulsi3>
    2da4:	87aa                	mv	a5,a0
    2da6:	873e                	mv	a4,a5
    2da8:	fbc45783          	lhu	a5,-68(s0)
    2dac:	85be                	mv	a1,a5
    2dae:	853a                	mv	a0,a4
    2db0:	22e5                	jal	2f98 <__mulsi3>
    2db2:	87aa                	mv	a5,a0
    2db4:	8c3e                	mv	s8,a5
    2db6:	4c81                	li	s9,0
    2db8:	01dc5793          	srli	a5,s8,0x1d
    2dbc:	003c9a93          	slli	s5,s9,0x3
    2dc0:	0157eab3          	or	s5,a5,s5
    2dc4:	003c1a13          	slli	s4,s8,0x3
    2dc8:	faa45783          	lhu	a5,-86(s0)
    2dcc:	fa845703          	lhu	a4,-88(s0)
    2dd0:	85ba                	mv	a1,a4
    2dd2:	853e                	mv	a0,a5
    2dd4:	22d1                	jal	2f98 <__mulsi3>
    2dd6:	87aa                	mv	a5,a0
    2dd8:	873e                	mv	a4,a5
    2dda:	fbc45783          	lhu	a5,-68(s0)
    2dde:	85be                	mv	a1,a5
    2de0:	853a                	mv	a0,a4
    2de2:	2a5d                	jal	2f98 <__mulsi3>
    2de4:	faa45783          	lhu	a5,-86(s0)
    2de8:	fa845703          	lhu	a4,-88(s0)
    2dec:	85ba                	mv	a1,a4
    2dee:	853e                	mv	a0,a5
    2df0:	2265                	jal	2f98 <__mulsi3>
    2df2:	87aa                	mv	a5,a0
    2df4:	873e                	mv	a4,a5
    2df6:	fbc45783          	lhu	a5,-68(s0)
    2dfa:	85be                	mv	a1,a5
    2dfc:	853a                	mv	a0,a4
    2dfe:	2a69                	jal	2f98 <__mulsi3>
    2e00:	87aa                	mv	a5,a0
    2e02:	8b3e                	mv	s6,a5
    2e04:	4b81                	li	s7,0
    2e06:	01db5793          	srli	a5,s6,0x1d
    2e0a:	003b9993          	slli	s3,s7,0x3
    2e0e:	0137e9b3          	or	s3,a5,s3
    2e12:	003b1913          	slli	s2,s6,0x3
    2e16:	faa45783          	lhu	a5,-86(s0)
    2e1a:	fa845703          	lhu	a4,-88(s0)
    2e1e:	85ba                	mv	a1,a4
    2e20:	853e                	mv	a0,a5
    2e22:	2a9d                	jal	2f98 <__mulsi3>
    2e24:	87aa                	mv	a5,a0
    2e26:	873e                	mv	a4,a5
    2e28:	fbc45783          	lhu	a5,-68(s0)
    2e2c:	85be                	mv	a1,a5
    2e2e:	853a                	mv	a0,a4
    2e30:	22a5                	jal	2f98 <__mulsi3>
    2e32:	87aa                	mv	a5,a0
    2e34:	07bd                	addi	a5,a5,15
    2e36:	8391                	srli	a5,a5,0x4
    2e38:	0792                	slli	a5,a5,0x4
    2e3a:	40f10133          	sub	sp,sp,a5
    2e3e:	181c                	addi	a5,sp,48
    2e40:	00078793          	mv	a5,a5
    2e44:	faf42023          	sw	a5,-96(s0)
    2e48:	4621                	li	a2,8
    2e4a:	678d                	lui	a5,0x3
    2e4c:	17878593          	addi	a1,a5,376 # 3178 <memcpy+0x108>
    2e50:	4501                	li	a0,0
    2e52:	f12fd0ef          	jal	ra,564 <uart_puts>
    2e56:	4785                	li	a5,1
    2e58:	f8f41f23          	sh	a5,-98(s0)
    2e5c:	4785                	li	a5,1
    2e5e:	f8f41e23          	sh	a5,-100(s0)
    2e62:	4621                	li	a2,8
    2e64:	678d                	lui	a5,0x3
    2e66:	18478593          	addi	a1,a5,388 # 3184 <memcpy+0x114>
    2e6a:	4501                	li	a0,0
    2e6c:	ef8fd0ef          	jal	ra,564 <uart_puts>
    2e70:	fa042783          	lw	a5,-96(s0)
    2e74:	fb845883          	lhu	a7,-72(s0)
    2e78:	fba45803          	lhu	a6,-70(s0)
    2e7c:	fbc45e03          	lhu	t3,-68(s0)
    2e80:	ed840313          	addi	t1,s0,-296
    2e84:	fbe45683          	lhu	a3,-66(s0)
    2e88:	fc045603          	lhu	a2,-64(s0)
    2e8c:	fc245583          	lhu	a1,-62(s0)
    2e90:	f4440513          	addi	a0,s0,-188
    2e94:	f9442703          	lw	a4,-108(s0)
    2e98:	d63a                	sw	a4,44(sp)
    2e9a:	f9842703          	lw	a4,-104(s0)
    2e9e:	d43a                	sw	a4,40(sp)
    2ea0:	fa845703          	lhu	a4,-88(s0)
    2ea4:	d23a                	sw	a4,36(sp)
    2ea6:	fa845703          	lhu	a4,-88(s0)
    2eaa:	d03a                	sw	a4,32(sp)
    2eac:	ce3e                	sw	a5,28(sp)
    2eae:	ed440793          	addi	a5,s0,-300
    2eb2:	cc3e                	sw	a5,24(sp)
    2eb4:	f9c45783          	lhu	a5,-100(s0)
    2eb8:	ca3e                	sw	a5,20(sp)
    2eba:	f9e45783          	lhu	a5,-98(s0)
    2ebe:	c83e                	sw	a5,16(sp)
    2ec0:	fb045783          	lhu	a5,-80(s0)
    2ec4:	c63e                	sw	a5,12(sp)
    2ec6:	fb245783          	lhu	a5,-78(s0)
    2eca:	c43e                	sw	a5,8(sp)
    2ecc:	fb445783          	lhu	a5,-76(s0)
    2ed0:	c23e                	sw	a5,4(sp)
    2ed2:	fb645783          	lhu	a5,-74(s0)
    2ed6:	c03e                	sw	a5,0(sp)
    2ed8:	87f2                	mv	a5,t3
    2eda:	871a                	mv	a4,t1
    2edc:	bbcfe0ef          	jal	ra,1298 <local_convolve_HWC_q7_nonsquare>
    2ee0:	4621                	li	a2,8
    2ee2:	678d                	lui	a5,0x3
    2ee4:	19078593          	addi	a1,a5,400 # 3190 <memcpy+0x120>
    2ee8:	4501                	li	a0,0
    2eea:	e7afd0ef          	jal	ra,564 <uart_puts>
    2eee:	faa45783          	lhu	a5,-86(s0)
    2ef2:	fa845703          	lhu	a4,-88(s0)
    2ef6:	85ba                	mv	a1,a4
    2ef8:	853e                	mv	a0,a5
    2efa:	2879                	jal	2f98 <__mulsi3>
    2efc:	87aa                	mv	a5,a0
    2efe:	873e                	mv	a4,a5
    2f00:	fbc45783          	lhu	a5,-68(s0)
    2f04:	85be                	mv	a1,a5
    2f06:	853a                	mv	a0,a4
    2f08:	2841                	jal	2f98 <__mulsi3>
    2f0a:	87aa                	mv	a5,a0
    2f0c:	f8f42823          	sw	a5,-112(s0)
    2f10:	fc042623          	sw	zero,-52(s0)
    2f14:	a035                	j	2f40 <main+0x320>
    2f16:	fa042703          	lw	a4,-96(s0)
    2f1a:	fcc42783          	lw	a5,-52(s0)
    2f1e:	97ba                	add	a5,a5,a4
    2f20:	00078783          	lb	a5,0(a5)
    2f24:	853e                	mv	a0,a5
    2f26:	347d                	jal	29d4 <num_print>
    2f28:	4605                	li	a2,1
    2f2a:	678d                	lui	a5,0x3
    2f2c:	19c78593          	addi	a1,a5,412 # 319c <memcpy+0x12c>
    2f30:	4501                	li	a0,0
    2f32:	e32fd0ef          	jal	ra,564 <uart_puts>
    2f36:	fcc42783          	lw	a5,-52(s0)
    2f3a:	0785                	addi	a5,a5,1
    2f3c:	fcf42623          	sw	a5,-52(s0)
    2f40:	fcc42703          	lw	a4,-52(s0)
    2f44:	f9042783          	lw	a5,-112(s0)
    2f48:	fcf747e3          	blt	a4,a5,2f16 <main+0x2f6>
    2f4c:	461d                	li	a2,7
    2f4e:	678d                	lui	a5,0x3
    2f50:	1a078593          	addi	a1,a5,416 # 31a0 <memcpy+0x130>
    2f54:	4501                	li	a0,0
    2f56:	e0efd0ef          	jal	ra,564 <uart_puts>
    2f5a:	4781                	li	a5,0
    2f5c:	8126                	mv	sp,s1
    2f5e:	853e                	mv	a0,a5
    2f60:	ea040113          	addi	sp,s0,-352
    2f64:	15c12083          	lw	ra,348(sp)
    2f68:	15812403          	lw	s0,344(sp)
    2f6c:	15412483          	lw	s1,340(sp)
    2f70:	15012903          	lw	s2,336(sp)
    2f74:	14c12983          	lw	s3,332(sp)
    2f78:	14812a03          	lw	s4,328(sp)
    2f7c:	14412a83          	lw	s5,324(sp)
    2f80:	14012b03          	lw	s6,320(sp)
    2f84:	13c12b83          	lw	s7,316(sp)
    2f88:	13812c03          	lw	s8,312(sp)
    2f8c:	13412c83          	lw	s9,308(sp)
    2f90:	6135                	addi	sp,sp,352
    2f92:	8082                	ret
    2f94:	0000                	unimp
	...

00002f98 <__mulsi3>:
    2f98:	00050613          	mv	a2,a0
    2f9c:	00000513          	li	a0,0
    2fa0:	0015f693          	andi	a3,a1,1
    2fa4:	00068463          	beqz	a3,2fac <__mulsi3+0x14>
    2fa8:	00c50533          	add	a0,a0,a2
    2fac:	0015d593          	srli	a1,a1,0x1
    2fb0:	00161613          	slli	a2,a2,0x1
    2fb4:	fe0596e3          	bnez	a1,2fa0 <__mulsi3+0x8>
    2fb8:	00008067          	ret

00002fbc <__divsi3>:
    2fbc:	06054063          	bltz	a0,301c <__umodsi3+0x10>
    2fc0:	0605c663          	bltz	a1,302c <__umodsi3+0x20>

00002fc4 <__udivsi3>:
    2fc4:	00058613          	mv	a2,a1
    2fc8:	00050593          	mv	a1,a0
    2fcc:	fff00513          	li	a0,-1
    2fd0:	02060c63          	beqz	a2,3008 <__udivsi3+0x44>
    2fd4:	00100693          	li	a3,1
    2fd8:	00b67a63          	bgeu	a2,a1,2fec <__udivsi3+0x28>
    2fdc:	00c05863          	blez	a2,2fec <__udivsi3+0x28>
    2fe0:	00161613          	slli	a2,a2,0x1
    2fe4:	00169693          	slli	a3,a3,0x1
    2fe8:	feb66ae3          	bltu	a2,a1,2fdc <__udivsi3+0x18>
    2fec:	00000513          	li	a0,0
    2ff0:	00c5e663          	bltu	a1,a2,2ffc <__udivsi3+0x38>
    2ff4:	40c585b3          	sub	a1,a1,a2
    2ff8:	00d56533          	or	a0,a0,a3
    2ffc:	0016d693          	srli	a3,a3,0x1
    3000:	00165613          	srli	a2,a2,0x1
    3004:	fe0696e3          	bnez	a3,2ff0 <__udivsi3+0x2c>
    3008:	00008067          	ret

0000300c <__umodsi3>:
    300c:	00008293          	mv	t0,ra
    3010:	fb5ff0ef          	jal	ra,2fc4 <__udivsi3>
    3014:	00058513          	mv	a0,a1
    3018:	00028067          	jr	t0
    301c:	40a00533          	neg	a0,a0
    3020:	0005d863          	bgez	a1,3030 <__umodsi3+0x24>
    3024:	40b005b3          	neg	a1,a1
    3028:	f9dff06f          	j	2fc4 <__udivsi3>
    302c:	40b005b3          	neg	a1,a1
    3030:	00008293          	mv	t0,ra
    3034:	f91ff0ef          	jal	ra,2fc4 <__udivsi3>
    3038:	40a00533          	neg	a0,a0
    303c:	00028067          	jr	t0

00003040 <__modsi3>:
    3040:	00008293          	mv	t0,ra
    3044:	0005ca63          	bltz	a1,3058 <__modsi3+0x18>
    3048:	00054c63          	bltz	a0,3060 <__modsi3+0x20>
    304c:	f79ff0ef          	jal	ra,2fc4 <__udivsi3>
    3050:	00058513          	mv	a0,a1
    3054:	00028067          	jr	t0
    3058:	40b005b3          	neg	a1,a1
    305c:	fe0558e3          	bgez	a0,304c <__modsi3+0xc>
    3060:	40a00533          	neg	a0,a0
    3064:	f61ff0ef          	jal	ra,2fc4 <__udivsi3>
    3068:	40b00533          	neg	a0,a1
    306c:	00028067          	jr	t0

00003070 <memcpy>:
    3070:	00a5c7b3          	xor	a5,a1,a0
    3074:	0037f793          	andi	a5,a5,3
    3078:	00c50733          	add	a4,a0,a2
    307c:	00079663          	bnez	a5,3088 <memcpy+0x18>
    3080:	00300793          	li	a5,3
    3084:	02c7e263          	bltu	a5,a2,30a8 <memcpy+0x38>
    3088:	00050793          	mv	a5,a0
    308c:	0ae57c63          	bgeu	a0,a4,3144 <memcpy+0xd4>
    3090:	0005c683          	lbu	a3,0(a1)
    3094:	00178793          	addi	a5,a5,1
    3098:	00158593          	addi	a1,a1,1
    309c:	fed78fa3          	sb	a3,-1(a5)
    30a0:	fee7e8e3          	bltu	a5,a4,3090 <memcpy+0x20>
    30a4:	00008067          	ret
    30a8:	00357693          	andi	a3,a0,3
    30ac:	00050793          	mv	a5,a0
    30b0:	00068e63          	beqz	a3,30cc <memcpy+0x5c>
    30b4:	0005c683          	lbu	a3,0(a1)
    30b8:	00178793          	addi	a5,a5,1
    30bc:	00158593          	addi	a1,a1,1
    30c0:	fed78fa3          	sb	a3,-1(a5)
    30c4:	0037f693          	andi	a3,a5,3
    30c8:	fe9ff06f          	j	30b0 <memcpy+0x40>
    30cc:	ffc77693          	andi	a3,a4,-4
    30d0:	fe068613          	addi	a2,a3,-32
    30d4:	06c7f463          	bgeu	a5,a2,313c <memcpy+0xcc>
    30d8:	0005a383          	lw	t2,0(a1)
    30dc:	0045a283          	lw	t0,4(a1)
    30e0:	0085af83          	lw	t6,8(a1)
    30e4:	00c5af03          	lw	t5,12(a1)
    30e8:	0105ae83          	lw	t4,16(a1)
    30ec:	0145ae03          	lw	t3,20(a1)
    30f0:	0185a303          	lw	t1,24(a1)
    30f4:	01c5a883          	lw	a7,28(a1)
    30f8:	02458593          	addi	a1,a1,36
    30fc:	0077a023          	sw	t2,0(a5)
    3100:	ffc5a803          	lw	a6,-4(a1)
    3104:	0057a223          	sw	t0,4(a5)
    3108:	01f7a423          	sw	t6,8(a5)
    310c:	01e7a623          	sw	t5,12(a5)
    3110:	01d7a823          	sw	t4,16(a5)
    3114:	01c7aa23          	sw	t3,20(a5)
    3118:	0067ac23          	sw	t1,24(a5)
    311c:	0117ae23          	sw	a7,28(a5)
    3120:	02478793          	addi	a5,a5,36
    3124:	ff07ae23          	sw	a6,-4(a5)
    3128:	fadff06f          	j	30d4 <memcpy+0x64>
    312c:	0005a603          	lw	a2,0(a1)
    3130:	00478793          	addi	a5,a5,4
    3134:	00458593          	addi	a1,a1,4
    3138:	fec7ae23          	sw	a2,-4(a5)
    313c:	fed7e8e3          	bltu	a5,a3,312c <memcpy+0xbc>
    3140:	f4e7e8e3          	bltu	a5,a4,3090 <memcpy+0x20>
    3144:	00008067          	ret
    3148:	4f495047          	fmsub.q	ft0,fs2,fs4,fs1,unknown
    314c:	5420                	lw	s0,104(s0)
    314e:	7365                	lui	t1,0xffff9
    3150:	3a74                	fld	fa3,240(a2)
    3152:	0020                	addi	s0,sp,8
    3154:	6150                	flw	fa2,4(a0)
    3156:	64657373          	csrrci	t1,0x646,10
    315a:	0a21                	addi	s4,s4,8
    315c:	0000                	unimp
    315e:	0000                	unimp
    3160:	6146                	flw	ft2,80(sp)
    3162:	6c69                	lui	s8,0x1a
    3164:	6465                	lui	s0,0x19
    3166:	0a21                	addi	s4,s4,8
    3168:	0000                	unimp
    316a:	0000                	unimp
    316c:	6f44                	flw	fs1,28(a4)
    316e:	656e                	flw	fa0,216(sp)
    3170:	2131                	jal	357c <Sig_out+0x148>
    3172:	0a0a                	slli	s4,s4,0x2
    3174:	0000                	unimp
    3176:	0000                	unimp
    3178:	6f44                	flw	fs1,28(a4)
    317a:	656e                	flw	fa0,216(sp)
    317c:	2132                	fld	ft2,264(sp)
    317e:	0a0a                	slli	s4,s4,0x2
    3180:	0000                	unimp
    3182:	0000                	unimp
    3184:	6f44                	flw	fs1,28(a4)
    3186:	656e                	flw	fa0,216(sp)
    3188:	0a0a2133          	0xa0a2133
    318c:	0000                	unimp
    318e:	0000                	unimp
    3190:	6f44                	flw	fs1,28(a4)
    3192:	656e                	flw	fa0,216(sp)
    3194:	2134                	fld	fa3,64(a0)
    3196:	0a0a                	slli	s4,s4,0x2
    3198:	0000                	unimp
    319a:	0000                	unimp
    319c:	000a                	c.slli	zero,0x2
    319e:	0000                	unimp
    31a0:	6f44                	flw	fs1,28(a4)
    31a2:	656e                	flw	fa0,216(sp)
    31a4:	0a21                	addi	s4,s4,8
    31a6:	000a                	c.slli	zero,0x2
    31a8:	0102                	c.slli64	sp
    31aa:	0100                	addi	s0,sp,128
    31ac:	0000                	unimp
    31ae:	0201                	addi	tp,tp,0
    31b0:	0200                	addi	s0,sp,256
    31b2:	0202                	c.slli64	tp
    31b4:	0102                	c.slli64	sp
    31b6:	0100                	addi	s0,sp,128
    31b8:	0102                	c.slli64	sp
    31ba:	0202                	c.slli64	tp
    31bc:	0201                	addi	tp,tp,0
    31be:	0201                	addi	tp,tp,0
    31c0:	0102                	c.slli64	sp
    31c2:	0102                	c.slli64	sp
    31c4:	0100                	addi	s0,sp,128
    31c6:	0000                	unimp
    31c8:	0201                	addi	tp,tp,0
    31ca:	0102                	c.slli64	sp
    31cc:	0102                	c.slli64	sp
    31ce:	0101                	addi	sp,sp,0
    31d0:	0200                	addi	s0,sp,256
    31d2:	0200                	addi	s0,sp,256
    31d4:	0101                	addi	sp,sp,0
    31d6:	0100                	addi	s0,sp,128
    31d8:	0100                	addi	s0,sp,128
    31da:	0100                	addi	s0,sp,128
    31dc:	0102                	c.slli64	sp
    31de:	0202                	c.slli64	tp
    31e0:	0002                	c.slli64	zero
    31e2:	0002                	c.slli64	zero
    31e4:	0100                	addi	s0,sp,128
    31e6:	0100                	addi	s0,sp,128
    31e8:	0201                	addi	tp,tp,0
    31ea:	0201                	addi	tp,tp,0
    31ec:	0000                	unimp
    31ee:	0202                	c.slli64	tp
    31f0:	0201                	addi	tp,tp,0
    31f2:	0002                	c.slli64	zero
    31f4:	0001                	nop
    31f6:	0001                	nop
    31f8:	ff00                	fsw	fs0,56(a4)
    31fa:	01ff                	0x1ff
    31fc:	0000                	unimp
    31fe:	ff00                	fsw	fs0,56(a4)
    3200:	ff00                	fsw	fs0,56(a4)
    3202:	01ff                	0x1ff
    3204:	ffff                	0xffff
    3206:	0101                	addi	sp,sp,0
    3208:	0101                	addi	sp,sp,0
    320a:	ff00                	fsw	fs0,56(a4)
    320c:	ff00                	fsw	fs0,56(a4)
    320e:	00ff                	0xff
    3210:	00ff                	0xff
    3212:	ff00                	fsw	fs0,56(a4)
    3214:	0100                	addi	s0,sp,128
    3216:	ffff                	0xffff
    3218:	00ff                	0xff
    321a:	ffff                	0xffff
    321c:	ff00                	fsw	fs0,56(a4)
    321e:	ff01                	bnez	a4,3136 <memcpy+0xc6>
    3220:	ff01                	bnez	a4,3138 <memcpy+0xc8>
    3222:	00ff                	0xff
    3224:	0101                	addi	sp,sp,0
    3226:	ffff                	0xffff
    3228:	01ff                	0x1ff
    322a:	0001                	nop
    322c:	0001                	nop
    322e:	ff00                	fsw	fs0,56(a4)
    3230:	01ff                	0x1ff
    3232:	0000                	unimp
    3234:	ff00                	fsw	fs0,56(a4)
    3236:	ff00                	fsw	fs0,56(a4)
    3238:	01ff                	0x1ff
    323a:	ffff                	0xffff
    323c:	0101                	addi	sp,sp,0
    323e:	0101                	addi	sp,sp,0
    3240:	ff00                	fsw	fs0,56(a4)
    3242:	ff00                	fsw	fs0,56(a4)
    3244:	00ff                	0xff
    3246:	00ff                	0xff
    3248:	ff00                	fsw	fs0,56(a4)
    324a:	0100                	addi	s0,sp,128
    324c:	ffff                	0xffff
    324e:	00ff                	0xff
    3250:	ffff                	0xffff
    3252:	ff00                	fsw	fs0,56(a4)
    3254:	ff01                	bnez	a4,316c <memcpy+0xfc>
    3256:	ff01                	bnez	a4,316e <memcpy+0xfe>
    3258:	00ff                	0xff
    325a:	0101                	addi	sp,sp,0
    325c:	ffff                	0xffff
    325e:	01ff                	0x1ff

Disassembly of section .srodata:

00003260 <GPIO_DIN>:
    3260:	0000                	unimp
    3262:	4800                	lw	s0,16(s0)

00003264 <GPIO_DOUT>:
    3264:	0004                	0x4
    3266:	4800                	lw	s0,16(s0)

00003268 <GPIO_PU>:
    3268:	0008                	0x8
    326a:	4800                	lw	s0,16(s0)

0000326c <GPIO_PD>:
    326c:	000c                	0xc
    326e:	4800                	lw	s0,16(s0)

00003270 <GPIO_DIR>:
    3270:	0010                	0x10
    3272:	4800                	lw	s0,16(s0)

00003274 <GPIO_IM>:
    3274:	0014                	0x14
    3276:	4800                	lw	s0,16(s0)

00003278 <UART0_DATA>:
    3278:	0000                	unimp
    327a:	4000                	lw	s0,0(s0)

0000327c <UART0_STATUS>:
    327c:	0004                	0x4
    327e:	4000                	lw	s0,0(s0)

00003280 <UART0_CTRL>:
    3280:	0004                	0x4
    3282:	4000                	lw	s0,0(s0)

00003284 <UART0_PRESCALER>:
    3284:	0008                	0x8
    3286:	4000                	lw	s0,0(s0)

00003288 <UART0_IM>:
    3288:	000c                	0xc
    328a:	4000                	lw	s0,0(s0)

0000328c <UART0_TXTH>:
    328c:	0010                	0x10
    328e:	4000                	lw	s0,0(s0)

00003290 <UART0_RXTH>:
    3290:	0014                	0x14
    3292:	4000                	lw	s0,0(s0)

00003294 <UART1_DATA>:
    3294:	0000                	unimp
    3296:	4010                	lw	a2,0(s0)

00003298 <UART1_STATUS>:
    3298:	0004                	0x4
    329a:	4010                	lw	a2,0(s0)

0000329c <UART1_CTRL>:
    329c:	0004                	0x4
    329e:	4010                	lw	a2,0(s0)

000032a0 <UART1_PRESCALER>:
    32a0:	0008                	0x8
    32a2:	4010                	lw	a2,0(s0)

000032a4 <UART1_IM>:
    32a4:	000c                	0xc
    32a6:	4010                	lw	a2,0(s0)

000032a8 <UART1_TXTH>:
    32a8:	0010                	0x10
    32aa:	4010                	lw	a2,0(s0)

000032ac <UART1_RXTH>:
    32ac:	0014                	0x14
    32ae:	4010                	lw	a2,0(s0)

000032b0 <SPI0_CTRL>:
    32b0:	0004                	0x4
    32b2:	4020                	lw	s0,64(s0)

000032b4 <SPI0_DATA>:
    32b4:	0000                	unimp
    32b6:	4020                	lw	s0,64(s0)

000032b8 <SPI0_STATUS>:
    32b8:	0010                	0x10
    32ba:	4020                	lw	s0,64(s0)

000032bc <SPI0_CFG>:
    32bc:	0008                	0x8
    32be:	4020                	lw	s0,64(s0)

000032c0 <SPI0_IM>:
    32c0:	0014                	0x14
    32c2:	4020                	lw	s0,64(s0)

000032c4 <SPI1_CTRL>:
    32c4:	0004                	0x4
    32c6:	4030                	lw	a2,64(s0)

000032c8 <SPI1_DATA>:
    32c8:	0000                	unimp
    32ca:	4030                	lw	a2,64(s0)

000032cc <SPI1_STATUS>:
    32cc:	0010                	0x10
    32ce:	4030                	lw	a2,64(s0)

000032d0 <SPI1_CFG>:
    32d0:	0008                	0x8
    32d2:	4030                	lw	a2,64(s0)

000032d4 <SPI1_IM>:
    32d4:	0014                	0x14
    32d6:	4030                	lw	a2,64(s0)

000032d8 <I2C0_PRE_LO>:
    32d8:	0000                	unimp
    32da:	4040                	lw	s0,4(s0)

000032dc <I2C0_PRE_HI>:
    32dc:	0004                	0x4
    32de:	4040                	lw	s0,4(s0)

000032e0 <I2C0_CTRL>:
    32e0:	0008                	0x8
    32e2:	4040                	lw	s0,4(s0)

000032e4 <I2C0_TX>:
    32e4:	000c                	0xc
    32e6:	4040                	lw	s0,4(s0)

000032e8 <I2C0_RX>:
    32e8:	0010                	0x10
    32ea:	4040                	lw	s0,4(s0)

000032ec <I2C0_CMD>:
    32ec:	0014                	0x14
    32ee:	4040                	lw	s0,4(s0)

000032f0 <I2C0_STAT>:
    32f0:	0018                	0x18
    32f2:	4040                	lw	s0,4(s0)

000032f4 <I2C0_IM>:
    32f4:	001c                	0x1c
    32f6:	4040                	lw	s0,4(s0)

000032f8 <I2C1_PRE_LO>:
    32f8:	0000                	unimp
    32fa:	4050                	lw	a2,4(s0)

000032fc <I2C1_PRE_HI>:
    32fc:	0004                	0x4
    32fe:	4050                	lw	a2,4(s0)

00003300 <I2C1_CTRL>:
    3300:	0008                	0x8
    3302:	4050                	lw	a2,4(s0)

00003304 <I2C1_TX>:
    3304:	000c                	0xc
    3306:	4050                	lw	a2,4(s0)

00003308 <I2C1_RX>:
    3308:	0010                	0x10
    330a:	4050                	lw	a2,4(s0)

0000330c <I2C1_CMD>:
    330c:	0014                	0x14
    330e:	4050                	lw	a2,4(s0)

00003310 <I2C1_STAT>:
    3310:	0018                	0x18
    3312:	4050                	lw	a2,4(s0)

00003314 <I2C1_IM>:
    3314:	001c                	0x1c
    3316:	4050                	lw	a2,4(s0)

00003318 <PWM0_CTRL>:
    3318:	0020                	addi	s0,sp,8
    331a:	4060                	lw	s0,68(s0)

0000331c <PWM0_PRE>:
    331c:	0010                	0x10
    331e:	4060                	lw	s0,68(s0)

00003320 <PWM0_CMP1>:
    3320:	0004                	0x4
    3322:	4060                	lw	s0,68(s0)

00003324 <PWM0_CMP2>:
    3324:	0008                	0x8
    3326:	4060                	lw	s0,68(s0)

00003328 <PWM1_CTRL>:
    3328:	0020                	addi	s0,sp,8
    332a:	4070                	lw	a2,68(s0)

0000332c <PWM1_PRE>:
    332c:	0010                	0x10
    332e:	4070                	lw	a2,68(s0)

00003330 <PWM1_CMP1>:
    3330:	0004                	0x4
    3332:	4070                	lw	a2,68(s0)

00003334 <PWM1_CMP2>:
    3334:	0008                	0x8
    3336:	4070                	lw	a2,68(s0)

00003338 <TMR0_EN>:
    3338:	0014                	0x14
    333a:	4080                	lw	s0,0(s1)

0000333c <TMR0>:
    333c:	0000                	unimp
    333e:	4080                	lw	s0,0(s1)

00003340 <TMR0_STATUS>:
    3340:	000c                	0xc
    3342:	4080                	lw	s0,0(s1)

00003344 <TMR0_PRE>:
    3344:	0004                	0x4
    3346:	4080                	lw	s0,0(s1)

00003348 <TMR0_CMP>:
    3348:	0008                	0x8
    334a:	4080                	lw	s0,0(s1)

0000334c <TMR0_OVCLR>:
    334c:	0010                	0x10
    334e:	4080                	lw	s0,0(s1)

00003350 <TMR0_IM>:
    3350:	0100                	addi	s0,sp,128
    3352:	4080                	lw	s0,0(s1)

00003354 <TMR1_EN>:
    3354:	0014                	0x14
    3356:	4090                	lw	a2,0(s1)

00003358 <TMR1>:
    3358:	0000                	unimp
    335a:	4090                	lw	a2,0(s1)

0000335c <TMR1_STATUS>:
    335c:	000c                	0xc
    335e:	4090                	lw	a2,0(s1)

00003360 <TMR1_PRE>:
    3360:	0004                	0x4
    3362:	4090                	lw	a2,0(s1)

00003364 <TMR1_CMP>:
    3364:	0008                	0x8
    3366:	4090                	lw	a2,0(s1)

00003368 <TMR1_OVCLR>:
    3368:	0010                	0x10
    336a:	4090                	lw	a2,0(s1)

0000336c <TMR1_IM>:
    336c:	0100                	addi	s0,sp,128
    336e:	4090                	lw	a2,0(s1)

00003370 <TMR2_EN>:
    3370:	0014                	0x14
    3372:	40a0                	lw	s0,64(s1)

00003374 <TMR2>:
    3374:	0000                	unimp
    3376:	40a0                	lw	s0,64(s1)

00003378 <TMR2_STATUS>:
    3378:	000c                	0xc
    337a:	40a0                	lw	s0,64(s1)

0000337c <TMR2_PRE>:
    337c:	0004                	0x4
    337e:	40a0                	lw	s0,64(s1)

00003380 <TMR2_CMP>:
    3380:	0008                	0x8
    3382:	40a0                	lw	s0,64(s1)

00003384 <TMR2_OVCLR>:
    3384:	0010                	0x10
    3386:	40a0                	lw	s0,64(s1)

00003388 <TMR2_IM>:
    3388:	0100                	addi	s0,sp,128
    338a:	40a0                	lw	s0,64(s1)

0000338c <TMR3_EN>:
    338c:	0014                	0x14
    338e:	40b0                	lw	a2,64(s1)

00003390 <TMR3>:
    3390:	0000                	unimp
    3392:	40b0                	lw	a2,64(s1)

00003394 <TMR3_STATUS>:
    3394:	000c                	0xc
    3396:	40b0                	lw	a2,64(s1)

00003398 <TMR3_PRE>:
    3398:	0004                	0x4
    339a:	40b0                	lw	a2,64(s1)

0000339c <TMR3_CMP>:
    339c:	0008                	0x8
    339e:	40b0                	lw	a2,64(s1)

000033a0 <TMR3_OVCLR>:
    33a0:	0010                	0x10
    33a2:	40b0                	lw	a2,64(s1)

000033a4 <TMR3_IM>:
    33a4:	0100                	addi	s0,sp,128
    33a6:	40b0                	lw	a2,64(s1)

000033a8 <WDT0_WDTMR>:
    33a8:	0000                	unimp
    33aa:	40c0                	lw	s0,4(s1)

000033ac <WDT0_WDLOAD>:
    33ac:	0004                	0x4
    33ae:	40c0                	lw	s0,4(s1)

000033b0 <WDT0_WDOV>:
    33b0:	000c                	0xc
    33b2:	40c0                	lw	s0,4(s1)

000033b4 <WDT0_WDOVCLR>:
    33b4:	0010                	0x10
    33b6:	40c0                	lw	s0,4(s1)

000033b8 <WDT0_WDEN>:
    33b8:	0014                	0x14
    33ba:	40c0                	lw	s0,4(s1)

000033bc <WDT0_IRQEN>:
    33bc:	0100                	addi	s0,sp,128
    33be:	40c0                	lw	s0,4(s1)

000033c0 <WDT1_WDTMR>:
    33c0:	0000                	unimp
    33c2:	40d0                	lw	a2,4(s1)

000033c4 <WDT1_WDLOAD>:
    33c4:	0004                	0x4
    33c6:	40d0                	lw	a2,4(s1)

000033c8 <WDT1_WDOV>:
    33c8:	000c                	0xc
    33ca:	40d0                	lw	a2,4(s1)

000033cc <WDT1_WDOVCLR>:
    33cc:	0010                	0x10
    33ce:	40d0                	lw	a2,4(s1)

000033d0 <WDT1_WDEN>:
    33d0:	0014                	0x14
    33d2:	40d0                	lw	a2,4(s1)

000033d4 <WDT1_IRQEN>:
    33d4:	0100                	addi	s0,sp,128
    33d6:	40d0                	lw	a2,4(s1)

000033d8 <ML_sumin>:
    33d8:	0000                	unimp
    33da:	4a00                	lw	s0,16(a2)

000033dc <ML_sum0>:
    33dc:	0004                	0x4
    33de:	4a00                	lw	s0,16(a2)

000033e0 <ML_sum1>:
    33e0:	0008                	0x8
    33e2:	4a00                	lw	s0,16(a2)

000033e4 <ML_sum2>:
    33e4:	000c                	0xc
    33e6:	4a00                	lw	s0,16(a2)

000033e8 <ML_sum3>:
    33e8:	0010                	0x10
    33ea:	4a00                	lw	s0,16(a2)

000033ec <ML_a>:
    33ec:	0014                	0x14
    33ee:	4a00                	lw	s0,16(a2)

000033f0 <ML_w0>:
    33f0:	0018                	0x18
    33f2:	4a00                	lw	s0,16(a2)

000033f4 <ML_w1>:
    33f4:	001c                	0x1c
    33f6:	4a00                	lw	s0,16(a2)

000033f8 <ML_w2>:
    33f8:	0020                	addi	s0,sp,8
    33fa:	4a00                	lw	s0,16(a2)

000033fc <ML_w3>:
    33fc:	0024                	addi	s1,sp,8
    33fe:	4a00                	lw	s0,16(a2)

00003400 <ML_out0>:
    3400:	0028                	addi	a0,sp,8
    3402:	4a00                	lw	s0,16(a2)

00003404 <ML_out1>:
    3404:	002c                	addi	a1,sp,8
    3406:	4a00                	lw	s0,16(a2)

00003408 <ML_out2>:
    3408:	0030                	addi	a2,sp,8
    340a:	4a00                	lw	s0,16(a2)

0000340c <ML_out3>:
    340c:	0034                	addi	a3,sp,8
    340e:	4a00                	lw	s0,16(a2)

00003410 <ML_valid>:
    3410:	0038                	addi	a4,sp,8
    3412:	4a00                	lw	s0,16(a2)

00003414 <SEC_in1>:
    3414:	0000                	unimp
    3416:	4b00                	lw	s0,16(a4)

00003418 <SEC_in2>:
    3418:	0004                	0x4
    341a:	4b00                	lw	s0,16(a4)

0000341c <SEC_in3>:
    341c:	0008                	0x8
    341e:	4b00                	lw	s0,16(a4)

00003420 <SEC_in4>:
    3420:	000c                	0xc
    3422:	4b00                	lw	s0,16(a4)

00003424 <SEC_out>:
    3424:	0010                	0x10
    3426:	4b00                	lw	s0,16(a4)

00003428 <Tanh_in>:
    3428:	0000                	unimp
    342a:	4d00                	lw	s0,24(a0)

0000342c <Tanh_out>:
    342c:	0004                	0x4
    342e:	4d00                	lw	s0,24(a0)

00003430 <Sig_in>:
    3430:	0000                	unimp
    3432:	4e00                	lw	s0,24(a2)

00003434 <Sig_out>:
    3434:	0004                	0x4
    3436:	4e00                	lw	s0,24(a2)

Disassembly of section .comment:

00000000 <.comment>:
   0:	3a434347          	fmsub.d	ft6,ft6,ft4,ft7,rmm
   4:	2820                	fld	fs0,80(s0)
   6:	29554e47          	fmsub.s	ft8,fa0,fs5,ft5,rmm
   a:	3820                	fld	fs0,112(s0)
   c:	322e                	fld	ft4,232(sp)
   e:	302e                	fld	ft0,232(sp)
	...

Disassembly of section .debug_line:

00000000 <.debug_line>:
   0:	0000008f          	0x8f
   4:	0002                	c.slli64	zero
   6:	0049                	c.nop	18
   8:	0000                	unimp
   a:	0101                	addi	sp,sp,0
   c:	000d0efb          	0xd0efb
  10:	0101                	addi	sp,sp,0
  12:	0101                	addi	sp,sp,0
  14:	0000                	unimp
  16:	0100                	addi	s0,sp,128
  18:	0000                	unimp
  1a:	2e01                	jal	32a <enable_irq0+0x6>
  1c:	2f2e                	fld	ft10,200(sp)
  1e:	2e2e                	fld	ft8,200(sp)
  20:	2f2e2e2f          	0x2f2e2e2f
  24:	2e2e                	fld	ft8,200(sp)
  26:	7369722f          	0x7369722f
  2a:	672d7663          	bgeu	s10,s2,696 <uart_gets+0x7a>
  2e:	6c2f6363          	bltu	t5,sp,6f4 <uart_im+0x20>
  32:	6269                	lui	tp,0x1a
  34:	2f636367          	0x2f636367
  38:	666e6f63          	bltu	t3,t1,6b6 <uart_gets+0x9a>
  3c:	6769                	lui	a4,0x1a
  3e:	7369722f          	0x7369722f
  42:	00007663          	bgeu	zero,zero,4e <ebreak_vector+0x3e>
  46:	756d                	lui	a0,0xffffb
  48:	646c                	flw	fa1,76(s0)
  4a:	3369                	jal	fffffdd4 <_fstack+0xdfffcdd8>
  4c:	532e                	lw	t1,232(sp)
  4e:	0100                	addi	s0,sp,128
  50:	0000                	unimp
  52:	0000                	unimp
  54:	0205                	addi	tp,tp,1
  56:	2f98                	fld	fa4,24(a5)
  58:	0000                	unimp
  5a:	03012403          	lw	s0,48(sp)
  5e:	0901                	addi	s2,s2,0
  60:	0004                	0x4
  62:	0301                	addi	t1,t1,0
  64:	0902                	c.slli64	s2
  66:	0004                	0x4
  68:	0301                	addi	t1,t1,0
  6a:	0901                	addi	s2,s2,0
  6c:	0004                	0x4
  6e:	0301                	addi	t1,t1,0
  70:	0901                	addi	s2,s2,0
  72:	0004                	0x4
  74:	0301                	addi	t1,t1,0
  76:	0902                	c.slli64	s2
  78:	0004                	0x4
  7a:	0301                	addi	t1,t1,0
  7c:	0901                	addi	s2,s2,0
  7e:	0004                	0x4
  80:	0301                	addi	t1,t1,0
  82:	0901                	addi	s2,s2,0
  84:	0004                	0x4
  86:	0301                	addi	t1,t1,0
  88:	0901                	addi	s2,s2,0
  8a:	0004                	0x4
  8c:	0901                	addi	s2,s2,0
  8e:	0004                	0x4
  90:	0100                	addi	s0,sp,128
  92:	6501                	0x6501
  94:	0001                	nop
  96:	0200                	addi	s0,sp,256
  98:	4600                	lw	s0,8(a2)
  9a:	0000                	unimp
  9c:	0100                	addi	s0,sp,128
  9e:	fb01                	bnez	a4,ffffffae <_fstack+0xdfffcfb2>
  a0:	0d0e                	slli	s10,s10,0x3
  a2:	0100                	addi	s0,sp,128
  a4:	0101                	addi	sp,sp,0
  a6:	0001                	nop
  a8:	0000                	unimp
  aa:	0001                	nop
  ac:	0100                	addi	s0,sp,128
  ae:	2e2e                	fld	ft8,200(sp)
  b0:	2f2e2e2f          	0x2f2e2e2f
  b4:	2e2e                	fld	ft8,200(sp)
  b6:	2f2e2e2f          	0x2f2e2e2f
  ba:	6972                	flw	fs2,28(sp)
  bc:	2d766373          	csrrsi	t1,0x2d7,12
  c0:	2f636367          	0x2f636367
  c4:	696c                	flw	fa1,84(a0)
  c6:	6762                	flw	fa4,24(sp)
  c8:	632f6363          	bltu	t5,s2,6ee <uart_im+0x1a>
  cc:	69666e6f          	jal	t3,66762 <Sig_out+0x6332e>
  d0:	69722f67          	0x69722f67
  d4:	00766373          	csrrsi	t1,0x7,12
  d8:	6400                	flw	fs0,8(s0)
  da:	7669                	lui	a2,0xffffa
  dc:	532e                	lw	t1,232(sp)
  de:	0100                	addi	s0,sp,128
  e0:	0000                	unimp
  e2:	0000                	unimp
  e4:	0205                	addi	tp,tp,1
  e6:	2fbc                	fld	fa5,88(a5)
  e8:	0000                	unimp
  ea:	0100c403          	lbu	s0,16(ra)
  ee:	04090103          	lb	sp,64(s2)
  f2:	0100                	addi	s0,sp,128
  f4:	04090403          	lb	s0,64(s2)
  f8:	0100                	addi	s0,sp,128
  fa:	04090103          	lb	sp,64(s2)
  fe:	0100                	addi	s0,sp,128
 100:	04090103          	lb	sp,64(s2)
 104:	0100                	addi	s0,sp,128
 106:	04090103          	lb	sp,64(s2)
 10a:	0100                	addi	s0,sp,128
 10c:	04090103          	lb	sp,64(s2)
 110:	0100                	addi	s0,sp,128
 112:	04090103          	lb	sp,64(s2)
 116:	0100                	addi	s0,sp,128
 118:	04090203          	lb	tp,64(s2)
 11c:	0100                	addi	s0,sp,128
 11e:	04090103          	lb	sp,64(s2)
 122:	0100                	addi	s0,sp,128
 124:	04090103          	lb	sp,64(s2)
 128:	0100                	addi	s0,sp,128
 12a:	04090103          	lb	sp,64(s2)
 12e:	0100                	addi	s0,sp,128
 130:	04090203          	lb	tp,64(s2)
 134:	0100                	addi	s0,sp,128
 136:	04090203          	lb	tp,64(s2)
 13a:	0100                	addi	s0,sp,128
 13c:	04090103          	lb	sp,64(s2)
 140:	0100                	addi	s0,sp,128
 142:	04090103          	lb	sp,64(s2)
 146:	0100                	addi	s0,sp,128
 148:	04090203          	lb	tp,64(s2)
 14c:	0100                	addi	s0,sp,128
 14e:	04090103          	lb	sp,64(s2)
 152:	0100                	addi	s0,sp,128
 154:	04090103          	lb	sp,64(s2)
 158:	0100                	addi	s0,sp,128
 15a:	04090203          	lb	tp,64(s2)
 15e:	0100                	addi	s0,sp,128
 160:	04090503          	lb	a0,64(s2)
 164:	0100                	addi	s0,sp,128
 166:	04090103          	lb	sp,64(s2)
 16a:	0100                	addi	s0,sp,128
 16c:	04090103          	lb	sp,64(s2)
 170:	0100                	addi	s0,sp,128
 172:	04090103          	lb	sp,64(s2)
 176:	0100                	addi	s0,sp,128
 178:	04090503          	lb	a0,64(s2)
 17c:	0100                	addi	s0,sp,128
 17e:	04090103          	lb	sp,64(s2)
 182:	0100                	addi	s0,sp,128
 184:	04090103          	lb	sp,64(s2)
 188:	0100                	addi	s0,sp,128
 18a:	04090103          	lb	sp,64(s2)
 18e:	0100                	addi	s0,sp,128
 190:	04090203          	lb	tp,64(s2)
 194:	0100                	addi	s0,sp,128
 196:	04090203          	lb	tp,64(s2)
 19a:	0100                	addi	s0,sp,128
 19c:	04090103          	lb	sp,64(s2)
 1a0:	0100                	addi	s0,sp,128
 1a2:	04090103          	lb	sp,64(s2)
 1a6:	0100                	addi	s0,sp,128
 1a8:	04090103          	lb	sp,64(s2)
 1ac:	0100                	addi	s0,sp,128
 1ae:	04090403          	lb	s0,64(s2)
 1b2:	0100                	addi	s0,sp,128
 1b4:	04090103          	lb	sp,64(s2)
 1b8:	0100                	addi	s0,sp,128
 1ba:	04090103          	lb	sp,64(s2)
 1be:	0100                	addi	s0,sp,128
 1c0:	04090203          	lb	tp,64(s2)
 1c4:	0100                	addi	s0,sp,128
 1c6:	04090103          	lb	sp,64(s2)
 1ca:	0100                	addi	s0,sp,128
 1cc:	04090103          	lb	sp,64(s2)
 1d0:	0100                	addi	s0,sp,128
 1d2:	04090203          	lb	tp,64(s2)
 1d6:	0100                	addi	s0,sp,128
 1d8:	04090103          	lb	sp,64(s2)
 1dc:	0100                	addi	s0,sp,128
 1de:	04090203          	lb	tp,64(s2)
 1e2:	0100                	addi	s0,sp,128
 1e4:	04090103          	lb	sp,64(s2)
 1e8:	0100                	addi	s0,sp,128
 1ea:	04090103          	lb	sp,64(s2)
 1ee:	0100                	addi	s0,sp,128
 1f0:	04090103          	lb	sp,64(s2)
 1f4:	0100                	addi	s0,sp,128
 1f6:	0409                	addi	s0,s0,2
 1f8:	0000                	unimp
 1fa:	0101                	addi	sp,sp,0

Disassembly of section .debug_info:

00000000 <.debug_info>:
   0:	0022                	c.slli	zero,0x8
   2:	0000                	unimp
   4:	0002                	c.slli64	zero
   6:	0000                	unimp
   8:	0000                	unimp
   a:	0104                	addi	s1,sp,128
   c:	0000                	unimp
   e:	0000                	unimp
  10:	2f98                	fld	fa4,24(a5)
  12:	0000                	unimp
  14:	2fbc                	fld	fa5,88(a5)
  16:	0000                	unimp
  18:	0000                	unimp
  1a:	0000                	unimp
  1c:	00000033          	add	zero,zero,zero
  20:	0094                	addi	a3,sp,64
  22:	0000                	unimp
  24:	8001                	c.srli64	s0
  26:	0022                	c.slli	zero,0x8
  28:	0000                	unimp
  2a:	0002                	c.slli64	zero
  2c:	0014                	0x14
  2e:	0000                	unimp
  30:	0104                	addi	s1,sp,128
  32:	00000093          	li	ra,0
  36:	2fbc                	fld	fa5,88(a5)
  38:	0000                	unimp
  3a:	3070                	fld	fa2,224(s0)
  3c:	0000                	unimp
  3e:	00a2                	slli	ra,ra,0x8
  40:	0000                	unimp
  42:	00000033          	add	zero,zero,zero
  46:	0094                	addi	a3,sp,64
  48:	0000                	unimp
  4a:	8001                	c.srli64	s0

Disassembly of section .debug_abbrev:

00000000 <.debug_abbrev>:
   0:	1101                	addi	sp,sp,-32
   2:	1000                	addi	s0,sp,32
   4:	1106                	slli	sp,sp,0x21
   6:	1201                	addi	tp,tp,-32
   8:	0301                	addi	t1,t1,0
   a:	1b0e                	slli	s6,s6,0x23
   c:	250e                	fld	fa0,192(sp)
   e:	130e                	slli	t1,t1,0x23
  10:	0005                	c.nop	1
  12:	0000                	unimp
  14:	1101                	addi	sp,sp,-32
  16:	1000                	addi	s0,sp,32
  18:	1106                	slli	sp,sp,0x21
  1a:	1201                	addi	tp,tp,-32
  1c:	0301                	addi	t1,t1,0
  1e:	1b0e                	slli	s6,s6,0x23
  20:	250e                	fld	fa0,192(sp)
  22:	130e                	slli	t1,t1,0x23
  24:	0005                	c.nop	1
	...

Disassembly of section .debug_aranges:

00000000 <.debug_aranges>:
   0:	001c                	0x1c
   2:	0000                	unimp
   4:	0002                	c.slli64	zero
   6:	0000                	unimp
   8:	0000                	unimp
   a:	0004                	0x4
   c:	0000                	unimp
   e:	0000                	unimp
  10:	2f98                	fld	fa4,24(a5)
  12:	0000                	unimp
  14:	0024                	addi	s1,sp,8
	...
  1e:	0000                	unimp
  20:	001c                	0x1c
  22:	0000                	unimp
  24:	0002                	c.slli64	zero
  26:	0026                	c.slli	zero,0x9
  28:	0000                	unimp
  2a:	0004                	0x4
  2c:	0000                	unimp
  2e:	0000                	unimp
  30:	2fbc                	fld	fa5,88(a5)
  32:	0000                	unimp
  34:	00b4                	addi	a3,sp,72
	...

Disassembly of section .debug_str:

00000000 <.debug_str>:
   0:	2e2e                	fld	ft8,200(sp)
   2:	2f2e2e2f          	0x2f2e2e2f
   6:	2e2e                	fld	ft8,200(sp)
   8:	2f2e2e2f          	0x2f2e2e2f
   c:	6972                	flw	fs2,28(sp)
   e:	2d766373          	csrrsi	t1,0x2d7,12
  12:	2f636367          	0x2f636367
  16:	696c                	flw	fa1,84(a0)
  18:	6762                	flw	fa4,24(sp)
  1a:	632f6363          	bltu	t5,s2,640 <uart_gets+0x24>
  1e:	69666e6f          	jal	t3,666b4 <Sig_out+0x63280>
  22:	69722f67          	0x69722f67
  26:	2f766373          	csrrsi	t1,0x2f7,12
  2a:	756d                	lui	a0,0xffffb
  2c:	646c                	flw	fa1,76(s0)
  2e:	3369                	jal	fffffdb8 <_fstack+0xdfffcdbc>
  30:	532e                	lw	t1,232(sp)
  32:	2f00                	fld	fs0,24(a4)
  34:	6f68                	flw	fa0,92(a4)
  36:	656d                	lui	a0,0x1b
  38:	6d64612f          	0x6d64612f
  3c:	6e69                	lui	t3,0x1a
  3e:	722f3367          	0x722f3367
  42:	7369                	lui	t1,0xffffa
  44:	672d7663          	bgeu	s10,s2,6b0 <uart_gets+0x94>
  48:	756e                	flw	fa0,248(sp)
  4a:	742d                	lui	s0,0xfffeb
  4c:	636c6f6f          	jal	t5,c6682 <Sig_out+0xc324e>
  50:	6168                	flw	fa0,68(a0)
  52:	6e69                	lui	t3,0x1a
  54:	722d                	lui	tp,0xfffeb
  56:	3376                	fld	ft6,376(sp)
  58:	6932                	flw	fs2,12(sp)
  5a:	6975622f          	0x6975622f
  5e:	646c                	flw	fa1,76(s0)
  60:	6975622f          	0x6975622f
  64:	646c                	flw	fa1,76(s0)
  66:	672d                	lui	a4,0xb
  68:	6e2d6363          	bltu	s10,sp,74e <spi_init+0x36>
  6c:	7765                	lui	a4,0xffff9
  6e:	696c                	flw	fa1,84(a0)
  70:	2d62                	fld	fs10,24(sp)
  72:	67617473          	csrrci	s0,0x676,2
  76:	3265                	jal	fffffa1e <_fstack+0xdfffca22>
  78:	7369722f          	0x7369722f
  7c:	32337663          	bgeu	t1,gp,3a8 <enable_irq5+0x10>
  80:	752d                	lui	a0,0xfffeb
  82:	6b6e                	flw	fs6,216(sp)
  84:	6f6e                	flw	ft10,216(sp)
  86:	652d6e77          	0x652d6e77
  8a:	666c                	flw	fa1,76(a2)
  8c:	62696c2f          	0x62696c2f
  90:	00636367          	0x636367
  94:	20554e47          	fmsub.s	ft8,fa0,ft5,ft4,rmm
  98:	5341                	li	t1,-16
  9a:	3220                	fld	fs0,96(a2)
  9c:	332e                	fld	ft6,232(sp)
  9e:	2e31                	jal	3ba <enable_irq6+0xa>
  a0:	0031                	c.nop	12
  a2:	2e2e                	fld	ft8,200(sp)
  a4:	2f2e2e2f          	0x2f2e2e2f
  a8:	2e2e                	fld	ft8,200(sp)
  aa:	2f2e2e2f          	0x2f2e2e2f
  ae:	6972                	flw	fs2,28(sp)
  b0:	2d766373          	csrrsi	t1,0x2d7,12
  b4:	2f636367          	0x2f636367
  b8:	696c                	flw	fa1,84(a0)
  ba:	6762                	flw	fa4,24(sp)
  bc:	632f6363          	bltu	t5,s2,6e2 <uart_im+0xe>
  c0:	69666e6f          	jal	t3,66756 <Sig_out+0x63322>
  c4:	69722f67          	0x69722f67
  c8:	2f766373          	csrrsi	t1,0x2f7,12
  cc:	6964                	flw	fs1,84(a0)
  ce:	2e76                	fld	ft8,344(sp)
  d0:	          	fadd.s	ft0,ft0,ft0,rne
